CMONC.ASM......PAGE 0001

LINE# LOC   CODE        LINE































































MONITOR$C000......PAGE 0002

LINE# LOC   CODE        LINE


00003  0000              ;********************************
00004  0000              ;
00005  0000              ;        MONITOR$C000
00006  0000              ;   MONITOR$C000.C64 V072882
00007  0000              ;   MACHINE LANGUAGE MONITOR
00008  0000              ; (C) 1982 BY COMMODORE MACHINES
00009  0000              ;
00010  0000              ;  DOCUMENTED BY DENTON MARLOWE
00011  0000              ;
00012  0000              ;********************************
00013  0000              *=$C000                ;SYS49152
00014  C000              ;*********************************
00015  C000              ; MAIN BODY OF CODE
00016  C000              ;*********************************
00017  C000              .FIL   MONC.ASM
00018  C000              ;********************************
00019  C000              ;
00020  C000              ;        MONITOR$X000
00021  C000              ;   MONITOR$X000.C64 V072882
00022  C000              ;   MACHINE LANGUAGE MONITOR
00023  C000              ; (C) 1982 BY COMMODORE MACHINES
00024  C000              ;
00025  C000              ;     BASED ON MONITOR$C000
00026  C000              ;
00027  C000              ;  DOCUMENTED BY DENTON MARLOWE
00028  C000              ;
00029  C000              ;********************************
00030  C000              ; PAGE $0000 EQUATES
00031  C000              ;********************************
00032  C000              D6510=$0000
00033  C000              UNUSED=$0002
00034  C000              ADRAY1=$0003
00035  C000              ADRAY2=$0005
00036  C000              CHARAC=$0007
00037  C000              ENDCHR=$0008
00038  C000              DIMFLG=$000C
00039  C000              VALTYP=$000D
00040  C000              INTFLG=$000E
00041  C000              GARBFL=$000F
00042  C000              SUBFLG=$0010
00043  C000              INPFLG=$0011
00044  C000              TANSGN=$0012
00045  C000              CHANNL=$0013
00046  C000              LINNUM=$0014
00047  C000              TEMPST=$0019
00048  C000              INDEX=$0022
00049  C000              RESHO=$0026
00050  C000              TXTTAB=$002B
00051  C000              VARTAB=$002D
00052  C000              STREND=$0031
00053  C000              FRETOP=$0033
00054  C000              SAL=$00AC
00055  C000              CMPO=$00B0
00056  C000              CAS1=$00C0
00057  C000              STAL=$00C1






MONITOR$C000......PAGE 0003

LINE# LOC   CODE        LINE


00058  C000              MEMUSS=$00C3
00059  C000              NDX=$00C6
00060  C000              GDBLN=$00CE
00061  C000              BLNON=$00CF
00062  C000              PNT=$00D1
00063  C000              PNTR=$00D3
00064  C000              TBLX=$00D6
00065  C000              ROBUF=$00F9
00066  C000              ;********************************
00067  C000              ; PAGE $0100 EQUATES
00068  C000              ;********************************
00069  C000              STACK=$0100
00070  C000              ;********************************
00071  C000              ; PAGE $0200 EQUATES
00072  C000              ;********************************
00073  C000              KEYD=$0277
00074  C000              MEMSIZ=$0283
00075  C000              ;********************************
00076  C000              ; PAGE $0300 EQUATES
00077  C000              ;********************************
00078  C000              CINV=$0314
00079  C000              CBINV=$0316
00080  C000              NMINV=$0318            ;NMI VECTOR
00081  C000              ;********************************
00082  C000              ; PAGE $0400 EQUATES
00083  C000              ;********************************
00084  C000              VICSCN=$0400
00085  C000              ;********************************
00086  C000              ; EXTERNAL ADDRESS EQUATES
00087  C000              ;********************************
00088  C000              SETMSG=$FF90
00089  C000              CLRCHN=$FFCC
00090  C000              CHRIN=$FFCF
00091  C000              CHROUT=$FFD2
00092  C000              LOAD=$FFD5
00093  C000              SAVE=$FFD8
00094  C000              GETIN=$FFE4
00095  C000              ;********************************
00096  C000              ; ENTRY POINT
00097  C000              ; 
00098  C000              ; ?
00099  C000              ;********************************
00100  C000  4C 0C C0    ENTRY  JMP XXC00C
00101  C003              ;********************************
00102  C003  4C 3F C0    XXC003 JMP XXC03F
00103  C006              ;********************************
00104  C006  4C CF FF    MCHRIN JMP CHRIN
00105  C009              ;********************************
00106  C009  4C D2 FF    MCHROT JMP CHROUT
00107  C00C              ;********************************
00108  C00C  78          XXC00C SEI 
00109  C00D  AD 18 03           LDA NMINV
00110  C010  85 11              STA INPFLG
00111  C012  AD 19 03           LDA NMINV+1
00112  C015  85 12              STA TANSGN






MONITOR$C000......PAGE 0004

LINE# LOC   CODE        LINE


00113  C017  AD F2 CE           LDA XXCEF2
00114  C01A  AE F3 CE           LDX XXCEF3
00115  C01D  8D 16 03           STA CBINV
00116  C020  8E 17 03           STX CBINV+1
00117  C023  20 19 CD           JSR XXCD19
00118  C026  A9 00              LDA #$00
00119  C028  85 F9              STA ROBUF
00120  C02A  85 FA              STA ROBUF+1
00121  C02C  A9 80              LDA #$80
00122  C02E  20 90 FF           JSR SETMSG
00123  C031  A9 FF              LDA #$FF
00124  C033  85 1A              STA TEMPST+1
00125  C035  A9 00              LDA #$00
00126  C037  85 13              STA CHANNL
00127  C039  85 10              STA SUBFLG
00128  C03B  85 31              STA STREND
00129  C03D  58                 CLI 
00130  C03E  00                 BRK 
00131  C03F              ;********************************
00132  C03F              ; NMI SERVICE ROUTINE
00133  C03F              ;********************************
00134  C03F  20 F9 CC    XXC03F JSR XXCCF9
00135  C042  68                 PLA 
00136  C043  85 07              STA CHARAC
00137  C045  68                 PLA 
00138  C046  85 06              STA ADRAY2+1
00139  C048  68                 PLA 
00140  C049  85 05              STA ADRAY2
00141  C04B  68                 PLA 
00142  C04C  85 04              STA ADRAY1+1
00143  C04E  68                 PLA 
00144  C04F  85 03              STA ADRAY1
00145  C051  68                 PLA 
00146  C052  85 02              STA UNUSED
00147  C054  BA                 TSX 
00148  C055  86 08              STX ENDCHR
00149  C057  38                 SEC 
00150  C058  A5 03              LDA ADRAY1
00151  C05A  E9 02              SBC #$02
00152  C05C  85 03              STA ADRAY1
00153  C05E  A5 02              LDA UNUSED
00154  C060  E9 00              SBC #$00
00155  C062  85 02              STA UNUSED
00156  C064  20 19 CD           JSR XXCD19
00157  C067  A5 1A              LDA TEMPST+1
00158  C069  C9 FF              CMP #$FF
00159  C06B  F0 1D              BEQ XXC08A
00160  C06D  A6 14              LDX LINNUM
00161  C06F  86 C1              STX STAL
00162  C071  A6 15              LDX LINNUM+1
00163  C073  86 C2              STX STAL+1
00164  C075  A0 00              LDY #$00
00165  C077  20 AB CD           JSR XXCDAB
00166  C07A  A5 2D              LDA VARTAB
00167  C07C  D0 06              BNE XXC084






MONITOR$C000......PAGE 0005

LINE# LOC   CODE        LINE


00168  C07E  A5 2E              LDA VARTAB+1
00169  C080  D0 05              BNE XXC087
00170  C082  F0 06              BEQ XXC08A
00171  C084  4C 94 C6    XXC084 JMP XXC694
00172  C087              ;********************************
00173  C087  4C 92 C6    XXC087 JMP XXC692
00174  C08A              ;********************************
00175  C08A  20 7C C9    XXC08A JSR XXC97C
00176  C08D  A2 42              LDX #$42        ;'B'
00177  C08F  A9 2A       XXC08F LDA #$2A        ;'*'
00178  C091  20 64 C8           JSR XXC864
00179  C094  4C A8 C9           JMP XXC9A8
00180  C097              ;********************************
00181  C097  A9 3F       XXC097 LDA #$3F        ;'?'
00182  C099  20 09 C0           JSR MCHROT
00183  C09C  20 7C C9    XXC09C JSR XXC97C
00184  C09F  A9 2E              LDA #$2E        ;'.'
00185  C0A1  20 09 C0           JSR MCHROT
00186  C0A4  A9 00              LDA #$00
00187  C0A6  85 0F              STA GARBFL
00188  C0A8  85 29              STA RESHO+3
00189  C0AA  85 31              STA STREND
00190  C0AC  20 DB C8    XXC0AC JSR XXC8DB
00191  C0AF  C9 2E              CMP #$2E        ;'.'
00192  C0B1  F0 F9              BEQ XXC0AC
00193  C0B3  C9 20              CMP #$20        ;' '
00194  C0B5  F0 F5              BEQ XXC0AC
00195  C0B7  A2 14              LDX #$14
00196  C0B9  DD AD CE    XXC0B9 CMP XXCEAD,X
00197  C0BC  D0 12              BNE XXC0D0
00198  C0BE  85 1E              STA $1E
00199  C0C0  8A                 TXA 
00200  C0C1  0A                 ASL A
00201  C0C2  AA                 TAX 
00202  C0C3  BD C2 CE           LDA XXCEC2,X
00203  C0C6  85 C1              STA STAL
00204  C0C8  BD C3 CE           LDA XXCEC3,X
00205  C0CB  85 C2              STA STAL+1
00206  C0CD  6C C1 00           JMP ($00C1)
00207  C0D0              ;********************************
00208  C0D0  CA          XXC0D0 DEX 
00209  C0D1  10 E6              BPL XXC0B9
00210  C0D3  30 C2              BMI XXC097
00211  C0D5  A2 02       XXC0D5 LDX #$02
00212  C0D7  D0 02              BNE XXC0DB
00213  C0D9  A2 00       XXC0D9 LDX #$00
00214  C0DB  B4 C1       XXC0DB LDY STAL,X
00215  C0DD  D0 08              BNE XXC0E7
00216  C0DF  B4 C2              LDY STAL+1,X
00217  C0E1  D0 02              BNE XXC0E5
00218  C0E3  E6 29              INC RESHO+3
00219  C0E5  D6 C2       XXC0E5 DEC STAL+1,X
00220  C0E7  D6 C1       XXC0E7 DEC STAL,X
00221  C0E9  60                 RTS 
00222  C0EA              ;********************************






MONITOR$C000......PAGE 0006

LINE# LOC   CODE        LINE


00223  C0EA  A9 00       XXC0EA LDA #$00
00224  C0EC  85 23              STA INDEX+1
00225  C0EE  20 5B C2           JSR XXC25B
00226  C0F1  A2 02              LDX #$02
00227  C0F3  20 79 C9    XXC0F3 JSR XXC979
00228  C0F6  CA                 DEX 
00229  C0F7  D0 FA              BNE XXC0F3
00230  C0F9  60                 RTS 
00231  C0FA              ;********************************
00232  C0FA  A2 02       XXC0FA LDX #$02
00233  C0FC  B5 C0       XXC0FC LDA CAS1,X
00234  C0FE  48                 PHA 
00235  C0FF  B5 26              LDA RESHO,X
00236  C101  95 C0              STA CAS1,X
00237  C103  68                 PLA 
00238  C104  95 26              STA RESHO,X
00239  C106  CA                 DEX 
00240  C107  D0 F3              BNE XXC0FC
00241  C109  60                 RTS 
00242  C10A              ;********************************
00243  C10A  A5 27       XXC10A LDA RESHO+1
00244  C10C  A4 28              LDY RESHO+2
00245  C10E  4C 15 C1           JMP XXC115
00246  C111              ;********************************
00247  C111  A5 C3       XXC111 LDA MEMUSS
00248  C113  A4 C4              LDY MEMUSS+1
00249  C115  38          XXC115 SEC 
00250  C116  E5 C1              SBC STAL
00251  C118  85 26              STA RESHO
00252  C11A  98                 TYA 
00253  C11B  E5 C2              SBC STAL+1
00254  C11D  A8                 TAY 
00255  C11E  05 26              ORA RESHO
00256  C120  60                 RTS 
00257  C121              ;********************************
00258  C121              ; C
00259  C121              ;********************************
00260  C121  A9 00       ZZC121 LDA #$00
00261  C123  F0 02              BEQ XXC127
00262  C125              ;********************************
00263  C125              ; T
00264  C125              ;********************************
00265  C125  A9 01       ZZC125 LDA #$01
00266  C127  85 2A       XXC127 STA RESHO+4
00267  C129  20 1D C8           JSR XXC81D
00268  C12C  20 7C C9           JSR XXC97C
00269  C12F  20 11 C1           JSR XXC111
00270  C132  20 77 C8           JSR XXC877
00271  C135  90 1A              BCC XXC151
00272  C137  20 0A C1    XXC137 JSR XXC10A
00273  C13A  B0 03              BCS XXC13F
00274  C13C  4C C1 C1           JMP XXC1C1
00275  C13F              ;********************************
00276  C13F  20 77 C1    XXC13F JSR XXC177
00277  C142  E6 C3              INC MEMUSS






MONITOR$C000......PAGE 0007

LINE# LOC   CODE        LINE


00278  C144  D0 02              BNE XXC148
00279  C146  E6 C4              INC MEMUSS+1
00280  C148  20 63 C9    XXC148 JSR XXC963
00281  C14B  A4 29              LDY RESHO+3
00282  C14D  D0 49              BNE XXC198
00283  C14F  F0 E6              BEQ XXC137
00284  C151  20 0A C1    XXC151 JSR XXC10A
00285  C154  18                 CLC 
00286  C155  A5 26              LDA RESHO
00287  C157  65 C3              ADC MEMUSS
00288  C159  85 C3              STA MEMUSS
00289  C15B  98                 TYA 
00290  C15C  65 C4              ADC MEMUSS+1
00291  C15E  85 C4              STA MEMUSS+1
00292  C160  20 FA C0           JSR XXC0FA
00293  C163  20 77 C1    XXC163 JSR XXC177
00294  C166  20 0A C1           JSR XXC10A
00295  C169  B0 56              BCS XXC1C1
00296  C16B  20 D5 C0           JSR XXC0D5
00297  C16E  20 D9 C0           JSR XXC0D9
00298  C171  A4 29              LDY RESHO+3
00299  C173  D0 23              BNE XXC198
00300  C175  F0 EC              BEQ XXC163
00301  C177  A2 00       XXC177 LDX #$00
00302  C179  20 49 CD           JSR XXCD49
00303  C17C  48                 PHA 
00304  C17D  20 45 CD           JSR XXCD45
00305  C180  68                 PLA 
00306  C181  A4 2A              LDY RESHO+4
00307  C183  F0 03              BEQ XXC188
00308  C185  20 53 CD           JSR XXCD53
00309  C188  C1 0D       XXC188 CMP (VALTYP,X)
00310  C18A  F0 0B              BEQ XXC197
00311  C18C  20 4E C8    XXC18C JSR XXC84E
00312  C18F  20 79 C9           JSR XXC979
00313  C192  20 E5 C8           JSR XXC8E5
00314  C195  F0 01              BEQ XXC198
00315  C197  60          XXC197 RTS 
00316  C198              ;********************************
00317  C198  4C 9C C0    XXC198 JMP XXC09C
00318  C19B              ;********************************
00319  C19B              ; F
00320  C19B              ;********************************
00321  C19B  20 36 C8    ZZC19B JSR XXC836
00322  C19E  20 40 C8           JSR XXC840
00323  C1A1  20 DB C8           JSR XXC8DB
00324  C1A4  20 A9 C8           JSR XXC8A9
00325  C1A7  90 15              BCC XXC1BE
00326  C1A9  85 20              STA TEMPST+7
00327  C1AB  A6 29       XXC1AB LDX RESHO+3
00328  C1AD  D0 12              BNE XXC1C1
00329  C1AF  20 11 C1           JSR XXC111
00330  C1B2  90 0D              BCC XXC1C1
00331  C1B4  A5 20              LDA TEMPST+7
00332  C1B6  20 57 CD           JSR XXCD57






MONITOR$C000......PAGE 0008

LINE# LOC   CODE        LINE


00333  C1B9  20 63 C9           JSR XXC963
00334  C1BC  D0 ED              BNE XXC1AB
00335  C1BE  4C 97 C0    XXC1BE JMP XXC097
00336  C1C1              ;********************************
00337  C1C1  4C 9C C0    XXC1C1 JMP XXC09C
00338  C1C4              ;********************************
00339  C1C4              ; H
00340  C1C4              ;********************************
00341  C1C4  20 36 C8    ZZC1C4 JSR XXC836
00342  C1C7  20 40 C8           JSR XXC840
00343  C1CA  20 DB C8           JSR XXC8DB
00344  C1CD  A2 00              LDX #$00
00345  C1CF  20 DB C8           JSR XXC8DB
00346  C1D2  C9 27              CMP #$27        ;'''
00347  C1D4  D0 13              BNE XXC1E9
00348  C1D6  20 DB C8           JSR XXC8DB
00349  C1D9  95 33       XXC1D9 STA FRETOP,X
00350  C1DB  E8                 INX 
00351  C1DC  20 06 C0           JSR MCHRIN
00352  C1DF  C9 0D              CMP #$0D
00353  C1E1  F0 20              BEQ XXC203
00354  C1E3  E0 20              CPX #$20        ;' '
00355  C1E5  D0 F2              BNE XXC1D9
00356  C1E7  F0 1A              BEQ XXC203
00357  C1E9  86 2C       XXC1E9 STX TXTTAB+1
00358  C1EB  20 B0 C8           JSR XXC8B0
00359  C1EE  90 CE              BCC XXC1BE
00360  C1F0  95 33       XXC1F0 STA FRETOP,X
00361  C1F2  E8                 INX 
00362  C1F3  20 06 C0           JSR MCHRIN
00363  C1F6  C9 0D              CMP #$0D
00364  C1F8  F0 09              BEQ XXC203
00365  C1FA  20 A9 C8           JSR XXC8A9
00366  C1FD  90 BF              BCC XXC1BE
00367  C1FF  E0 20              CPX #$20        ;' '
00368  C201  D0 ED              BNE XXC1F0
00369  C203  86 1F       XXC203 STX $1F
00370  C205  20 7C C9           JSR XXC97C
00371  C208  A2 00       XXC208 LDX #$00
00372  C20A  A0 00              LDY #$00
00373  C20C  A5 C1              LDA STAL
00374  C20E  48                 PHA 
00375  C20F  A5 C2              LDA STAL+1
00376  C211  48                 PHA 
00377  C212  20 7C CD    XXC212 JSR XXCD7C
00378  C215  D5 33              CMP FRETOP,X
00379  C217  D0 13              BNE XXC22C
00380  C219  20 63 C9           JSR XXC963
00381  C21C  E8                 INX 
00382  C21D  E4 1F              CPX $1F
00383  C21F  D0 F1              BNE XXC212
00384  C221  68                 PLA 
00385  C222  85 C2              STA STAL+1
00386  C224  68                 PLA 
00387  C225  85 C1              STA STAL






MONITOR$C000......PAGE 0009

LINE# LOC   CODE        LINE


00388  C227  20 8C C1           JSR XXC18C
00389  C22A  D0 06              BNE XXC232
00390  C22C  68          XXC22C PLA 
00391  C22D  85 C2              STA STAL+1
00392  C22F  68                 PLA 
00393  C230  85 C1              STA STAL
00394  C232  20 63 C9    XXC232 JSR XXC963
00395  C235  A4 29              LDY RESHO+3
00396  C237  D0 05              BNE XXC23E
00397  C239  20 11 C1           JSR XXC111
00398  C23C  B0 CA              BCS XXC208
00399  C23E  4C 9C C0    XXC23E JMP XXC09C
00400  C241              ;********************************
00401  C241              ; D
00402  C241              ;********************************
00403  C241  20 38 C4    ZZC241 JSR XXC438
00404  C244  20 11 C1    XXC244 JSR XXC111
00405  C247  90 0D              BCC XXC256
00406  C249  A0 2C              LDY #$2C        ;','
00407  C24B  20 EA C0           JSR XXC0EA
00408  C24E  20 B5 C2           JSR XXC2B5
00409  C251  20 E5 C8           JSR XXC8E5
00410  C254  D0 EE              BNE XXC244
00411  C256  20 97 C5    XXC256 JSR XXC597
00412  C259  D0 E3              BNE XXC23E
00413  C25B  20 6E C9    XXC25B JSR XXC96E
00414  C25E  20 4E C8    XXC25E JSR XXC84E
00415  C261  20 79 C9           JSR XXC979
00416  C264  20 1B CC           JSR XXCC1B
00417  C267  48                 PHA 
00418  C268  20 CC C2           JSR XXC2CC
00419  C26B  68                 PLA 
00420  C26C  A2 03              LDX #$03
00421  C26E  20 52 C3           JSR XXC352
00422  C271  A2 06              LDX #$06
00423  C273  E0 03       XXC273 CPX #$03
00424  C275  D0 13              BNE XXC28A
00425  C277  A4 22              LDY INDEX
00426  C279  F0 0F              BEQ XXC28A
00427  C27B  A5 2B       XXC27B LDA TXTTAB
00428  C27D  C9 E8              CMP #$E8
00429  C27F  20 7C CD           JSR XXCD7C
00430  C282  B0 1C              BCS XXC2A0
00431  C284  20 AD C2           JSR XXC2AD
00432  C287  88                 DEY 
00433  C288  D0 F1              BNE XXC27B
00434  C28A  06 2B       XXC28A ASL TXTTAB
00435  C28C  90 0E              BCC XXC29C
00436  C28E  BD 0A CE           LDA XXCE0A,X
00437  C291  20 92 C5           JSR XXC592
00438  C294  BD 10 CE           LDA XXCE10,X
00439  C297  F0 03              BEQ XXC29C
00440  C299  20 92 C5           JSR XXC592
00441  C29C  CA          XXC29C DEX 
00442  C29D  D0 D4              BNE XXC273






MONITOR$C000......PAGE 0010

LINE# LOC   CODE        LINE


00443  C29F  60                 RTS 
00444  C2A0              ;********************************
00445  C2A0  20 C0 C2    XXC2A0 JSR XXC2C0
00446  C2A3  AA                 TAX 
00447  C2A4  E8                 INX 
00448  C2A5  D0 01              BNE XXC2A8
00449  C2A7  C8                 INY 
00450  C2A8  98          XXC2A8 TYA 
00451  C2A9  20 AD C2           JSR XXC2AD
00452  C2AC  8A                 TXA 
00453  C2AD  86 1F       XXC2AD STX $1F
00454  C2AF  20 55 C8           JSR XXC855
00455  C2B2  A6 1F              LDX $1F
00456  C2B4  60                 RTS 
00457  C2B5              ;********************************
00458  C2B5  A5 22       XXC2B5 LDA INDEX
00459  C2B7  20 BF C2    XXC2B7 JSR XXC2BF
00460  C2BA  85 C1              STA STAL
00461  C2BC  84 C2              STY STAL+1
00462  C2BE  60                 RTS 
00463  C2BF              ;********************************
00464  C2BF  38          XXC2BF SEC 
00465  C2C0  A4 C2       XXC2C0 LDY STAL+1
00466  C2C2  AA                 TAX 
00467  C2C3  10 01              BPL XXC2C6
00468  C2C5  88                 DEY 
00469  C2C6  65 C1       XXC2C6 ADC STAL
00470  C2C8  90 01              BCC XXC2CB
00471  C2CA  C8                 INY 
00472  C2CB  60          XXC2CB RTS 
00473  C2CC              ;********************************
00474  C2CC  A4 22       XXC2CC LDY INDEX
00475  C2CE  C8                 INY 
00476  C2CF  98                 TYA 
00477  C2D0  48                 PHA 
00478  C2D1  20 2A C9           JSR XXC92A
00479  C2D4  68                 PLA 
00480  C2D5  85 21              STA $21
00481  C2D7  38                 SEC 
00482  C2D8  A5 C1              LDA STAL
00483  C2DA  E5 21              SBC $21
00484  C2DC  85 C1              STA STAL
00485  C2DE  B0 02              BCS XXC2E2
00486  C2E0  C6 C2              DEC STAL+1
00487  C2E2  A5 22       XXC2E2 LDA INDEX
00488  C2E4  18                 CLC 
00489  C2E5  65 22              ADC INDEX
00490  C2E7  65 22              ADC INDEX
00491  C2E9  A8                 TAY 
00492  C2EA  A9 20       XXC2EA LDA #$20        ;' '
00493  C2EC  20 09 C0           JSR MCHROT
00494  C2EF  C8                 INY 
00495  C2F0  C0 07              CPY #$07
00496  C2F2  D0 F6              BNE XXC2EA
00497  C2F4  60                 RTS 






MONITOR$C000......PAGE 0011

LINE# LOC   CODE        LINE


00498  C2F5              ;********************************
00499  C2F5  A8          XXC2F5 TAY 
00500  C2F6  4A                 LSR A
00501  C2F7  90 0B              BCC XXC304
00502  C2F9  4A                 LSR A
00503  C2FA  B0 17              BCS XXC313
00504  C2FC  C9 22              CMP #$22        ;'"'
00505  C2FE  F0 13              BEQ XXC313
00506  C300  29 07              AND #$07
00507  C302  09 80              ORA #$80
00508  C304  4A          XXC304 LSR A
00509  C305  AA                 TAX 
00510  C306  BD B9 CD           LDA XXCDB9,X
00511  C309  B0 04              BCS XXC30F
00512  C30B  4A                 LSR A
00513  C30C  4A                 LSR A
00514  C30D  4A                 LSR A
00515  C30E  4A                 LSR A
00516  C30F  29 0F       XXC30F AND #$0F
00517  C311  D0 04              BNE XXC317
00518  C313  A0 80       XXC313 LDY #$80
00519  C315  A9 00              LDA #$00
00520  C317  AA          XXC317 TAX 
00521  C318  BD FD CD           LDA XXCDFD,X
00522  C31B  85 2B              STA TXTTAB
00523  C31D  29 03              AND #$03
00524  C31F  85 22              STA INDEX
00525  C321  98                 TYA 
00526  C322  29 8F              AND #$8F
00527  C324  AA                 TAX 
00528  C325  98                 TYA 
00529  C326  A0 03              LDY #$03
00530  C328  E0 8A              CPX #$8A
00531  C32A  F0 0B              BEQ XXC337
00532  C32C  4A          XXC32C LSR A
00533  C32D  90 08              BCC XXC337
00534  C32F  4A                 LSR A
00535  C330  4A          XXC330 LSR A
00536  C331  09 20              ORA #$20        ;' '
00537  C333  88                 DEY 
00538  C334  D0 FA              BNE XXC330
00539  C336  C8                 INY 
00540  C337  88          XXC337 DEY 
00541  C338  D0 F2              BNE XXC32C
00542  C33A  60                 RTS 
00543  C33B              ;********************************
00544  C33B  20 7C CD    XXC33B JSR XXCD7C
00545  C33E  20 AD C2           JSR XXC2AD
00546  C341  A2 01              LDX #$01
00547  C343  20 F3 C0    XXC343 JSR XXC0F3
00548  C346  C4 22              CPY INDEX
00549  C348  C8                 INY 
00550  C349  90 F0              BCC XXC33B
00551  C34B  A2 03              LDX #$03
00552  C34D  C0 03              CPY #$03






MONITOR$C000......PAGE 0012

LINE# LOC   CODE        LINE


00553  C34F  90 F2              BCC XXC343
00554  C351  60                 RTS 
00555  C352              ;********************************
00556  C352  A8          XXC352 TAY 
00557  C353  B9 17 CE           LDA XXCE17,Y
00558  C356  85 27              STA RESHO+1
00559  C358  B9 57 CE           LDA XXCE57,Y
00560  C35B  85 28              STA RESHO+2
00561  C35D  A9 00       XXC35D LDA #$00
00562  C35F  A0 05              LDY #$05
00563  C361  06 28       XXC361 ASL RESHO+2
00564  C363  26 27              ROL RESHO+1
00565  C365  2A                 ROL A
00566  C366  88                 DEY 
00567  C367  D0 F8              BNE XXC361
00568  C369  69 3F              ADC #$3F        ;'?'
00569  C36B  20 09 C0           JSR MCHROT
00570  C36E  CA                 DEX 
00571  C36F  D0 EC              BNE XXC35D
00572  C371  4C 79 C9           JMP XXC979
00573  C374              ;********************************
00574  C374  AD F5 CE    XXC374 LDA XXCEF5
00575  C377  48                 PHA 
00576  C378  AD F4 CE           LDA XXCEF4
00577  C37B  48                 PHA 
00578  C37C  A9 00              LDA #$00
00579  C37E  48                 PHA 
00580  C37F  48                 PHA 
00581  C380  48                 PHA 
00582  C381  48                 PHA 
00583  C382  6C 18 00           JMP ($0018)
00584  C385              ;********************************
00585  C385  85 20       XXC385 STA TEMPST+7
00586  C387  48                 PHA 
00587  C388  20 DB C8    XXC388 JSR XXC8DB
00588  C38B  20 3F C9           JSR XXC93F
00589  C38E  D0 F8              BNE XXC388
00590  C390  68                 PLA 
00591  C391  49 FF       XXC391 EOR #$FF
00592  C393  4C B7 C2           JMP XXC2B7
00593  C396              ;********************************
00594  C396              ; I
00595  C396              ;********************************
00596  C396  A9 40       ZZC396 LDA #$40        ;'@'
00597  C398              ;ERR-ASSEMBLER MAKES THIS ZERO PAGE.   
00598  C398                                     ;BIT $00A9
00599  C398  2C                 .BYTE $2C
00600  C399              ;********************************
00601  C399              ; M
00602  C399              ;********************************
00603  C399  A9          ZZC399 .BYTE $A9,$00
00603  C39A  00 
00604  C39B              ;ZZC399 LDA #$00
00605  C39B  85 20              STA TEMPST+7
00606  C39D  20 38 C4           JSR XXC438






MONITOR$C000......PAGE 0013

LINE# LOC   CODE        LINE


00607  C3A0  A6 29       XXC3A0 LDX RESHO+3
00608  C3A2  D0 17              BNE XXC3BB
00609  C3A4  20 11 C1           JSR XXC111
00610  C3A7  90 12              BCC XXC3BB
00611  C3A9  24 20              BIT TEMPST+7
00612  C3AB  50 06              BVC XXC3B3
00613  C3AD  20 BE C3           JSR XXC3BE
00614  C3B0  4C B6 C3           JMP XXC3B6
00615  C3B3              ;********************************
00616  C3B3              ;       JSR XXC40E
00617  C3B3  20 0E C4    XXC3B3 JSR XXC40E
00618  C3B6  20 E5 C8    XXC3B6 JSR XXC8E5
00619  C3B9  D0 E5              BNE XXC3A0
00620  C3BB  4C 56 C2    XXC3BB JMP XXC256
00621  C3BE              ;********************************
00622  C3BE  20 7C C9    XXC3BE JSR XXC97C
00623  C3C1  A2 2E       XXC3C1 LDX #$2E        ;'.'
00624  C3C3  A9 27              LDA #$27        ;'''
00625  C3C5  20 64 C8           JSR XXC864
00626  C3C8  20 79 C9           JSR XXC979
00627  C3CB  20 4E C8           JSR XXC84E
00628  C3CE  A9 12              LDA #$12
00629  C3D0  20 09 C0           JSR MCHROT
00630  C3D3  A0 08              LDY #$08
00631  C3D5  A2 00              LDX #$00
00632  C3D7  20 49 CD    XXC3D7 JSR XXCD49
00633  C3DA  29 7F              AND #$7F
00634  C3DC  C9 20              CMP #$20        ;' '
00635  C3DE  B0 02              BCS XXC3E2
00636  C3E0  A9 2E              LDA #$2E        ;'.'
00637  C3E2  20 09 C0    XXC3E2 JSR MCHROT
00638  C3E5  C9 22              CMP #$22        ;'"'
00639  C3E7  D0 0A              BNE XXC3F3
00640  C3E9  A9 14              LDA #$14
00641  C3EB  20 09 C0           JSR MCHROT
00642  C3EE  A9 22              LDA #$22        ;'"'
00643  C3F0  20 09 C0           JSR MCHROT
00644  C3F3  20 63 C9    XXC3F3 JSR XXC963
00645  C3F6  88                 DEY 
00646  C3F7  D0 DE              BNE XXC3D7
00647  C3F9  A9 92              LDA #$92
00648  C3FB  20 09 C0           JSR MCHROT
00649  C3FE  A5 C1              LDA STAL
00650  C400  38                 SEC 
00651  C401  E9 08              SBC #$08
00652  C403  85 C1              STA STAL
00653  C405  B0 02              BCS XXC409
00654  C407  C6 C2              DEC STAL+1
00655  C409  A9 08       XXC409 LDA #$08
00656  C40B  4C 2A C9           JMP XXC92A
00657  C40E              ;********************************
00658  C40E  20 7C C9    XXC40E JSR XXC97C
00659  C411  A2 2E       XXC411 LDX #$2E        ;'.'
00660  C413  A9 3A              LDA #$3A        ;':'
00661  C415  20 64 C8           JSR XXC864






MONITOR$C000......PAGE 0014

LINE# LOC   CODE        LINE


00662  C418  20 4E C8           JSR XXC84E
00663  C41B  A9 08              LDA #$08
00664  C41D  4C 2A C9           JMP XXC92A
00665  C420              ;********************************
00666  C420              ; :
00667  C420              ;********************************
00668  C420  20 36 C8    ZZC420 JSR XXC836
00669  C423  A9 08              LDA #$08
00670  C425  20 85 C3           JSR XXC385
00671  C428  20 97 C5           JSR XXC597
00672  C42B  20 0E C4           JSR XXC40E
00673  C42E  A9 3A              LDA #$3A        ;':'
00674  C430  8D 77 02           STA KEYD
00675  C433  A9 00              LDA #$00
00676  C435  4C 47 C5           JMP XXC547
00677  C438              ;********************************
00678  C438  20 36 C8    XXC438 JSR XXC836
00679  C43B  85 C3              STA MEMUSS
00680  C43D  86 C4              STX MEMUSS+1
00681  C43F  20 06 C0           JSR MCHRIN
00682  C442  C9 0D              CMP #$0D
00683  C444  F0 03              BEQ XXC449
00684  C446  20 3B C8           JSR XXC83B
00685  C449  4C 7C C9    XXC449 JMP XXC97C
00686  C44C              ;********************************
00687  C44C              ; A AND ,
00688  C44C              ;********************************
00689  C44C  20 87 C8    ZZC44C JSR XXC887
00690  C44F  85 C3              STA MEMUSS
00691  C451  86 C4              STX MEMUSS+1
00692  C453  A2 00       XXC453 LDX #$00
00693  C455  86 34              STX FRETOP+1
00694  C457  20 DB C8    XXC457 JSR XXC8DB
00695  C45A  C9 20              CMP #$20        ;' '
00696  C45C  F0 F5              BEQ XXC453
00697  C45E  95 24              STA $24,X
00698  C460  E8                 INX 
00699  C461  E0 03              CPX #$03
00700  C463  D0 F2              BNE XXC457
00701  C465  CA          XXC465 DEX 
00702  C466  30 11              BMI XXC479
00703  C468  B5 24              LDA $24,X
00704  C46A  38                 SEC 
00705  C46B  E9 3F              SBC #$3F        ;'?'
00706  C46D  A0 05              LDY #$05
00707  C46F  4A          XXC46F LSR A
00708  C470  66 34              ROR FRETOP+1
00709  C472  66 33              ROR FRETOP
00710  C474  88                 DEY 
00711  C475  D0 F8              BNE XXC46F
00712  C477  F0 EC              BEQ XXC465
00713  C479  A2 02       XXC479 LDX #$02
00714  C47B  20 06 C0    XXC47B JSR MCHRIN
00715  C47E  C9 0D              CMP #$0D
00716  C480  F0 20              BEQ XXC4A2






MONITOR$C000......PAGE 0015

LINE# LOC   CODE        LINE


00717  C482  C9 3A              CMP #$3A        ;':'
00718  C484  F0 1C              BEQ XXC4A2
00719  C486  C9 20              CMP #$20        ;' '
00720  C488  F0 F1              BEQ XXC47B
00721  C48A  20 89 C5           JSR XXC589
00722  C48D  B0 0E              BCS XXC49D
00723  C48F  20 BD C8           JSR XXC8BD
00724  C492  A4 C1              LDY STAL
00725  C494  84 C2              STY STAL+1
00726  C496  85 C1              STA STAL
00727  C498  A9 30              LDA #$30        ;'0'
00728  C49A  95 33              STA FRETOP,X
00729  C49C  E8                 INX 
00730  C49D  95 33       XXC49D STA FRETOP,X
00731  C49F  E8                 INX 
00732  C4A0  D0 D9              BNE XXC47B
00733  C4A2  86 27       XXC4A2 STX RESHO+1
00734  C4A4  A2 00              LDX #$00
00735  C4A6  86 29              STX RESHO+3
00736  C4A8  A2 00       XXC4A8 LDX #$00
00737  C4AA  86 20              STX TEMPST+7
00738  C4AC  A5 29              LDA RESHO+3
00739  C4AE  20 F5 C2           JSR XXC2F5
00740  C4B1  A6 2B              LDX TXTTAB
00741  C4B3  86 28              STX RESHO+2
00742  C4B5  AA                 TAX 
00743  C4B6  BD 57 CE           LDA XXCE57,X
00744  C4B9  20 6F C5           JSR XXC56F
00745  C4BC  BD 17 CE           LDA XXCE17,X
00746  C4BF  20 6F C5           JSR XXC56F
00747  C4C2  A2 06              LDX #$06
00748  C4C4  E0 03       XXC4C4 CPX #$03
00749  C4C6  D0 12              BNE XXC4DA
00750  C4C8  A4 22              LDY INDEX
00751  C4CA  F0 0E              BEQ XXC4DA
00752  C4CC  A5 2B       XXC4CC LDA TXTTAB
00753  C4CE  C9 E8              CMP #$E8
00754  C4D0  A9 30              LDA #$30        ;'0'
00755  C4D2  B0 1D              BCS XXC4F1
00756  C4D4  20 6C C5           JSR XXC56C
00757  C4D7  88                 DEY 
00758  C4D8  D0 F2              BNE XXC4CC
00759  C4DA  06 2B       XXC4DA ASL TXTTAB
00760  C4DC  90 0E              BCC XXC4EC
00761  C4DE  BD 0A CE           LDA XXCE0A,X
00762  C4E1  20 6F C5           JSR XXC56F
00763  C4E4  BD 10 CE           LDA XXCE10,X
00764  C4E7  F0 03              BEQ XXC4EC
00765  C4E9  20 6F C5           JSR XXC56F
00766  C4EC  CA          XXC4EC DEX 
00767  C4ED  D0 D5              BNE XXC4C4
00768  C4EF  F0 06              BEQ XXC4F7
00769  C4F1  20 6C C5    XXC4F1 JSR XXC56C
00770  C4F4  20 6C C5           JSR XXC56C
00771  C4F7  A5 27       XXC4F7 LDA RESHO+1






MONITOR$C000......PAGE 0016

LINE# LOC   CODE        LINE


00772  C4F9  C5 20              CMP TEMPST+7
00773  C4FB  F0 03              BEQ XXC500
00774  C4FD  4C 79 C5           JMP XXC579
00775  C500              ;********************************
00776  C500  20 77 C8    XXC500 JSR XXC877
00777  C503  A4 22              LDY INDEX
00778  C505  F0 2B              BEQ XXC532
00779  C507  A5 28              LDA RESHO+2
00780  C509  C9 9D              CMP #$9D
00781  C50B  D0 1C              BNE XXC529
00782  C50D  20 11 C1           JSR XXC111
00783  C510  90 09              BCC XXC51B
00784  C512  98                 TYA 
00785  C513  D0 6B              BNE XXC580
00786  C515  A6 26              LDX RESHO
00787  C517  30 67              BMI XXC580
00788  C519  10 07              BPL XXC522
00789  C51B  C8          XXC51B INY 
00790  C51C  D0 62              BNE XXC580
00791  C51E  A6 26              LDX RESHO
00792  C520  10 5E              BPL XXC580
00793  C522  CA          XXC522 DEX 
00794  C523  CA                 DEX 
00795  C524  8A                 TXA 
00796  C525  A4 22              LDY INDEX
00797  C527  D0 03              BNE XXC52C
00798  C529  B9 C2 00    XXC529 LDA $00C2,Y
00799  C52C  20 AB CD    XXC52C JSR XXCDAB
00800  C52F  88                 DEY 
00801  C530  D0 F7              BNE XXC529
00802  C532  A5 29       XXC532 LDA RESHO+3
00803  C534  20 AB CD           JSR XXCDAB
00804  C537  A0 41              LDY #$41        ;'A'
00805  C539  8C 77 02           STY KEYD
00806  C53C  20 97 C5           JSR XXC597
00807  C53F  20 EA C0           JSR XXC0EA
00808  C542  20 B5 C2           JSR XXC2B5
00809  C545  A9 20              LDA #$20        ;' '
00810  C547  8D 78 02    XXC547 STA KEYD+1
00811  C54A  A5 C2              LDA STAL+1
00812  C54C  20 9C C5           JSR XXC59C
00813  C54F  8E 79 02           STX KEYD+2
00814  C552  8D 7A 02           STA KEYD+3
00815  C555  A5 C1              LDA STAL
00816  C557  20 9C C5           JSR XXC59C
00817  C55A  8E 7B 02           STX KEYD+4
00818  C55D  8D 7C 02           STA KEYD+5
00819  C560  A9 20              LDA #$20        ;' '
00820  C562  8D 7D 02           STA KEYD+6
00821  C565  A9 07              LDA #$07
00822  C567  85 C6              STA NDX
00823  C569  4C 9C C0           JMP XXC09C
00824  C56C              ;********************************
00825  C56C  20 6F C5    XXC56C JSR XXC56F
00826  C56F  86 1F       XXC56F STX $1F






MONITOR$C000......PAGE 0017

LINE# LOC   CODE        LINE


00827  C571  A6 20              LDX TEMPST+7
00828  C573  D5 33              CMP FRETOP,X
00829  C575  F0 0C              BEQ XXC583
00830  C577  68                 PLA 
00831  C578  68                 PLA 
00832  C579  E6 29       XXC579 INC RESHO+3
00833  C57B  F0 03              BEQ XXC580
00834  C57D  4C A8 C4           JMP XXC4A8
00835  C580              ;********************************
00836  C580  4C 97 C0    XXC580 JMP XXC097
00837  C583              ;********************************
00838  C583  E8          XXC583 INX 
00839  C584  86 20              STX TEMPST+7
00840  C586  A6 1F              LDX $1F
00841  C588  60                 RTS 
00842  C589              ;********************************
00843  C589  C9 30       XXC589 CMP #$30        ;'0'
00844  C58B  90 03              BCC XXC590
00845  C58D  C9 47              CMP #$47        ;'G'
00846  C58F  60                 RTS 
00847  C590              ;********************************
00848  C590  38          XXC590 SEC 
00849  C591  60                 RTS 
00850  C592              ;********************************
00851  C592  C5 23       XXC592 CMP INDEX+1
00852  C594  D0 03              BNE XXC599
00853  C596  60                 RTS 
00854  C597              ;********************************
00855  C597  A9 91       XXC597 LDA #$91
00856  C599  4C 09 C0    XXC599 JMP MCHROT
00857  C59C              ;********************************
00858  C59C              ;
00859  C59C              ;********************************
00860  C59C  48          XXC59C PHA 
00861  C59D  4A                 LSR A
00862  C59E  4A                 LSR A
00863  C59F  4A                 LSR A
00864  C5A0  4A                 LSR A
00865  C5A1  20 6D C8           JSR XXC86D
00866  C5A4  AA                 TAX 
00867  C5A5  68                 PLA 
00868  C5A6  29 0F              AND #$0F
00869  C5A8  4C 6D C8           JMP XXC86D
00870  C5AB              ;********************************
00871  C5AB              ;
00872  C5AB              ;********************************
00873  C5AB  85 05       XXC5AB STA ADRAY2
00874  C5AD  08                 PHP 
00875  C5AE  68                 PLA 
00876  C5AF  29 EF              AND #$EF
00877  C5B1  85 04              STA ADRAY1+1
00878  C5B3  86 06              STX ADRAY2+1
00879  C5B5  84 07              STY CHARAC
00880  C5B7  68                 PLA 
00881  C5B8  18                 CLC 






MONITOR$C000......PAGE 0018

LINE# LOC   CODE        LINE


00882  C5B9  69 01              ADC #$01
00883  C5BB  85 03              STA ADRAY1
00884  C5BD  68                 PLA 
00885  C5BE  69 00              ADC #$00
00886  C5C0  85 02              STA UNUSED
00887  C5C2  A9 80              LDA #$80
00888  C5C4  85 10              STA SUBFLG
00889  C5C6  D0 3F              BNE XXC607
00890  C5C8  48          XXC5C8 PHA 
00891  C5C9  8A                 TXA 
00892  C5CA  48                 PHA 
00893  C5CB  98                 TYA 
00894  C5CC  48                 PHA 
00895  C5CD  BA                 TSX 
00896  C5CE  BD 04 01           LDA STACK+4,X
00897  C5D1  29 04              AND #$04
00898  C5D3  D0 01              BNE XXC5D6
00899  C5D5  58                 CLI 
00900  C5D6  A0 32       XXC5D6 LDY #$32        ;'2'
00901  C5D8  B1 F9              LDA (ROBUF),Y
00902  C5DA  8D AA AA           STA $AAAA
00903  C5DD  EA                 NOP 
00904  C5DE  78                 SEI 
00905  C5DF  20 F9 CC           JSR XXCCF9
00906  C5E2  68                 PLA 
00907  C5E3  85 07              STA CHARAC
00908  C5E5  68                 PLA 
00909  C5E6  85 06              STA ADRAY2+1
00910  C5E8  68                 PLA 
00911  C5E9  85 05              STA ADRAY2
00912  C5EB  D8                 CLD 
00913  C5EC  68                 PLA 
00914  C5ED  85 04              STA ADRAY1+1
00915  C5EF  68                 PLA 
00916  C5F0  85 03              STA ADRAY1
00917  C5F2  68                 PLA 
00918  C5F3  85 02              STA UNUSED
00919  C5F5              ;********************************
00920  C5F5              ;.END
00921  C5F5              ;*=$C5F5
00922  C5F5              ;********************************
00923  C5F5  A5 11              LDA INPFLG
00924  C5F7  8D 18 03           STA NMINV
00925  C5FA  A5 12              LDA TANSGN
00926  C5FC  8D 19 03           STA NMINV+1
00927  C5FF  20 19 CD           JSR XXCD19
00928  C602  A9 20              LDA #$20        ;' '
00929  C604  8D AA AA           STA $AAAA
00930  C607  BA          XXC607 TSX 
00931  C608  86 08              STX ENDCHR
00932  C60A  AD AA AA           LDA $AAAA
00933  C60D  8D AA AA           STA $AAAA
00934  C610  58                 CLI 
00935  C611  24 13              BIT CHANNL
00936  C613  10 1F              BPL XXC634






MONITOR$C000......PAGE 0019

LINE# LOC   CODE        LINE


00937  C615  A5 14              LDA LINNUM
00938  C617  85 C1              STA STAL
00939  C619  A5 15              LDA LINNUM+1
00940  C61B  85 C2              STA STAL+1
00941  C61D  A0 00              LDY #$00
00942  C61F  20 7C CD           JSR XXCD7C
00943  C622  85 1A              STA TEMPST+1
00944  C624  A9 00              LDA #$00
00945  C626  20 AB CD           JSR XXCDAB
00946  C629  24 13              BIT CHANNL
00947  C62B  50 05              BVC XXC632
00948  C62D  85 13              STA CHANNL
00949  C62F  4C D9 C6           JMP XXC6D9
00950  C632              ;********************************
00951  C632  85 13       XXC632 STA CHANNL
00952  C634  24 10       XXC634 BIT SUBFLG
00953  C636  50 18              BVC XXC650
00954  C638  A5 02              LDA UNUSED
00955  C63A  C5 15              CMP LINNUM+1
00956  C63C  D0 58              BNE XXC696
00957  C63E  A5 03              LDA ADRAY1
00958  C640  C5 14              CMP LINNUM
00959  C642  D0 52              BNE XXC696
00960  C644  A5 2D              LDA VARTAB
00961  C646  D0 4C              BNE XXC694
00962  C648  A5 2E              LDA VARTAB+1
00963  C64A  D0 46              BNE XXC692
00964  C64C  A9 80              LDA #$80
00965  C64E  85 10              STA SUBFLG
00966  C650                                     ;BMI XXC667
00967  C650  30 15       XXC650 BMI XXC667
00968  C652  46 10              LSR SUBFLG
00969  C654  B0 03              BCS XXC659
00970  C656  4C 8A C0           JMP XXC08A
00971  C659              ;********************************
00972  C659  A6 08       XXC659 LDX ENDCHR
00973  C65B  9A                 TXS 
00974  C65C  AD F7 CE           LDA XXCEF7
00975  C65F  48                 PHA 
00976  C660  AD F6 CE           LDA XXCEF6
00977  C663  48                 PHA 
00978  C664  4C 33 C7           JMP XXC733
00979  C667              ;********************************
00980  C667  20 7C C9    XXC667 JSR XXC97C
00981  C66A  A5 03              LDA ADRAY1
00982  C66C  A6 02              LDX UNUSED
00983  C66E  85 C1              STA STAL
00984  C670  86 C2              STX STAL+1
00985  C672  20 79 C9           JSR XXC979
00986  C675  A9 24              LDA #$24        ;'$'
00987  C677  85 23              STA INDEX+1
00988  C679  20 5E C2           JSR XXC25E
00989  C67C  20 E4 FF    XXC67C JSR GETIN
00990  C67F  F0 FB              BEQ XXC67C
00991  C681  C9 03              CMP #$03






MONITOR$C000......PAGE 0020

LINE# LOC   CODE        LINE


00992  C683  D0 03              BNE XXC688
00993  C685  4C 9C C0           JMP XXC09C
00994  C688              ;********************************
00995  C688  C9 4A       XXC688 CMP #$4A        ;'J'
00996  C68A  D0 4D              BNE XXC6D9
00997  C68C  A9 01              LDA #$01
00998  C68E  85 10              STA SUBFLG
00999  C690  D0 47              BNE XXC6D9
01000  C692  C6 2E       XXC692 DEC VARTAB+1
01001  C694  C6 2D       XXC694 DEC VARTAB
01002  C696  AD 00 DC    XXC696 LDA $DC00
01003  C699  C9 FA              CMP #$FA
01004  C69B  D0 3C              BNE XXC6D9
01005  C69D  A2 53              LDX #$53        ;'S'
01006  C69F  4C 8F C0           JMP XXC08F
01007  C6A2              ;********************************
01008  C6A2              ; G
01009  C6A2              ;********************************
01010  C6A2  A9 00       ZZC6A2 LDA #$00
01011  C6A4  F0 06              BEQ XXC6AC
01012  C6A6              ;********************************
01013  C6A6              ; Q
01014  C6A6              ;********************************
01015  C6A6  A9 40       ZZC6A6 LDA #$40        ;'@'
01016  C6A8  D0 02              BNE XXC6AC
01017  C6AA              ;********************************
01018  C6AA              ; W
01019  C6AA              ;********************************
01020  C6AA  A9 80       ZZC6AA LDA #$80
01021  C6AC  85 10       XXC6AC STA SUBFLG
01022  C6AE  85 31              STA STREND
01023  C6B0  A4 16              LDY $16
01024  C6B2  84 2D              STY VARTAB
01025  C6B4  A4 17              LDY $17
01026  C6B6  84 2E              STY VARTAB+1
01027  C6B8  20 06 C0           JSR MCHRIN
01028  C6BB  C9 0D              CMP #$0D
01029  C6BD  F0 17              BEQ XXC6D6
01030  C6BF  C9 20              CMP #$20        ;' '
01031  C6C1  F0 03              BEQ XXC6C6
01032  C6C3  4C 67 C7           JMP XXC767
01033  C6C6              ;********************************
01034  C6C6  20 9A C8    XXC6C6 JSR XXC89A
01035  C6C9  20 25 C9           JSR XXC925
01036  C6CC  20 06 C0           JSR MCHRIN
01037  C6CF  C9 0D              CMP #$0D
01038  C6D1  F0 03              BEQ XXC6D6
01039  C6D3  4C 67 C7           JMP XXC767
01040  C6D6              ;********************************
01041  C6D6  20 7C C9    XXC6D6 JSR XXC97C
01042  C6D9  A5 1A       XXC6D9 LDA TEMPST+1
01043  C6DB  C9 FF              CMP #$FF
01044  C6DD  F0 35              BEQ XXC714
01045  C6DF  A6 14              LDX LINNUM
01046  C6E1  E4 03              CPX ADRAY1






MONITOR$C000......PAGE 0021

LINE# LOC   CODE        LINE


01047  C6E3  D0 1D              BNE XXC702
01048  C6E5  A4 15              LDY LINNUM+1
01049  C6E7  C4 02              CPY UNUSED
01050  C6E9  D0 17              BNE XXC702
01051  C6EB  84 C2              STY STAL+1
01052  C6ED  86 C1              STX STAL
01053  C6EF  A6 10              LDX SUBFLG
01054  C6F1  D0 25              BNE XXC718
01055  C6F3  A0 00              LDY #$00
01056  C6F5  20 AB CD           JSR XXCDAB
01057  C6F8  A9 80              LDA #$80
01058  C6FA  85 13              STA CHANNL
01059  C6FC  A9 C0              LDA #$C0
01060  C6FE  85 13              STA CHANNL
01061  C700  D0 16              BNE XXC718
01062  C702  A5 10       XXC702 LDA SUBFLG
01063  C704  D0 12              BNE XXC718
01064  C706  86 C1              STX STAL
01065  C708  A4 15              LDY LINNUM+1    ;LDY GARBFL
01066  C70A  84 C2              STY STAL+1
01067  C70C  A0 00              LDY #$00
01068  C70E  A9 00              LDA #$00
01069  C710  A8                 TAY 
01070  C711  20 AB CD           JSR XXCDAB
01071  C714  A5 10       XXC714 LDA SUBFLG
01072  C716  F0 17              BEQ XXC72F
01073  C718  78          XXC718 SEI 
01074  C719  A9 A0              LDA #$A0
01075  C71B  8D AA AA           STA $AAAA
01076  C71E  A9 00              LDA #$00
01077  C720  8D AA AA           STA $AAAA
01078  C723  AD F1 CE           LDA XXCEF1
01079  C726  8D 19 03           STA NMINV+1
01080  C729  AD F0 CE           LDA XXCEF0
01081  C72C  8D 18 03           STA NMINV
01082  C72F  78          XXC72F SEI 
01083  C730  A6 08              LDX ENDCHR
01084  C732  9A                 TXS 
01085  C733  A5 02       XXC733 LDA UNUSED
01086  C735  48                 PHA 
01087  C736  A5 03              LDA ADRAY1
01088  C738  48                 PHA 
01089  C739  A5 04              LDA ADRAY1+1
01090  C73B  48                 PHA 
01091  C73C  A5 05              LDA ADRAY2
01092  C73E  48                 PHA 
01093  C73F  A6 06              LDX ADRAY2+1
01094  C741  A4 07              LDY CHARAC
01095  C743  A5 10              LDA SUBFLG
01096  C745  05 13              ORA CHANNL
01097  C747  08                 PHP 
01098  C748  AD AA AA           LDA $AAAA
01099  C74B  85 32              STA $32
01100  C74D  20 3A CD           JSR XXCD3A
01101  C750  20 F9 CC           JSR XXCCF9






MONITOR$C000......PAGE 0022

LINE# LOC   CODE        LINE


01102  C753  28                 PLP 
01103  C754  F0 0F              BEQ XXC765
01104  C756  A9 7F              LDA #$7F
01105  C758  8D AA AA           STA $AAAA
01106  C75B  A9 09              LDA #$09
01107  C75D  8D 06 DD           STA $DD06
01108  C760  A9 00              LDA #$00
01109  C762  8D 07 DD           STA $DD07
01110  C765  68          XXC765 PLA 
01111  C766  40                 RTI 
01112  C767              ;********************************
01113  C767  4C 97 C0    XXC767 JMP XXC097
01114  C76A              ;********************************
01115  C76A              ; B
01116  C76A              ;********************************
01117  C76A  20 87 C8    ZZC76A JSR XXC887
01118  C76D  85 C1              STA STAL
01119  C76F  86 C2              STX STAL+1
01120  C771  85 14              STA LINNUM
01121  C773  86 15              STX LINNUM+1
01122  C775  A0 00              LDY #$00
01123  C777  20 7C CD           JSR XXCD7C
01124  C77A  85 1A              STA TEMPST+1
01125  C77C  98                 TYA 
01126  C77D  A9 00              LDA #$00
01127  C77F  85 16              STA $16
01128  C781  85 17              STA $17
01129  C783  20 97 C8           JSR XXC897
01130  C786  85 16              STA $16
01131  C788  86 17              STX $17
01132  C78A  4C 9C C0           JMP XXC09C
01133  C78D              ;********************************
01134  C78D              ; N
01135  C78D              ;********************************
01136  C78D  20 1D C8    ZZC78D JSR XXC81D
01137  C790  85 2F              STA $2F
01138  C792  86 30              STX $30
01139  C794  20 97 C8           JSR XXC897
01140  C797  85 24              STA $24
01141  C799  86 25              STX $25
01142  C79B  20 97 C8           JSR XXC897
01143  C79E  85 AE              STA SAL+2
01144  C7A0  86 AF              STX SAL+3
01145  C7A2  20 06 C0           JSR MCHRIN
01146  C7A5  C9 0D              CMP #$0D
01147  C7A7  F0 09              BEQ XXC7B2
01148  C7A9  20 06 C0           JSR MCHRIN
01149  C7AC  C9 57              CMP #$57        ;'W'
01150  C7AE  D0 02              BNE XXC7B2
01151  C7B0  E6 23              INC INDEX+1
01152  C7B2  20 77 C8    XXC7B2 JSR XXC877
01153  C7B5  A6 29       XXC7B5 LDX RESHO+3
01154  C7B7  D0 18              BNE XXC7D1
01155  C7B9  20 0A C1           JSR XXC10A
01156  C7BC  90 13              BCC XXC7D1






MONITOR$C000......PAGE 0023

LINE# LOC   CODE        LINE


01157  C7BE  A4 23              LDY INDEX+1
01158  C7C0  D0 1A              BNE XXC7DC
01159  C7C2  20 7C CD           JSR XXCD7C
01160  C7C5  20 F5 C2           JSR XXC2F5
01161  C7C8  AA                 TAX 
01162  C7C9  BD 17 CE           LDA XXCE17,X
01163  C7CC  D0 06              BNE XXC7D4
01164  C7CE  20 EA C0           JSR XXC0EA
01165  C7D1  4C 9C C0    XXC7D1 JMP XXC09C
01166  C7D4              ;********************************
01167  C7D4  A4 22       XXC7D4 LDY INDEX
01168  C7D6  C0 02              CPY #$02
01169  C7D8  D0 3B              BNE XXC815
01170  C7DA  F0 02              BEQ XXC7DE
01171  C7DC  84 22       XXC7DC STY INDEX
01172  C7DE  88          XXC7DE DEY 
01173  C7DF  38                 SEC 
01174  C7E0  20 7C CD           JSR XXCD7C
01175  C7E3  AA                 TAX 
01176  C7E4  E5 24              SBC $24
01177  C7E6  C8                 INY 
01178  C7E7  20 7C CD           JSR XXCD7C
01179  C7EA  E5 25              SBC $25
01180  C7EC  90 27              BCC XXC815
01181  C7EE  88                 DEY 
01182  C7EF  20 7C CD           JSR XXCD7C
01183  C7F2  85 0B              STA $0B
01184  C7F4  A5 AE              LDA SAL+2
01185  C7F6  E5 0B              SBC $0B
01186  C7F8  C8                 INY 
01187  C7F9  20 7C CD           JSR XXCD7C
01188  C7FC  85 0B              STA $0B
01189  C7FE  A5 AF              LDA SAL+3
01190  C800  E5 0B              SBC $0B
01191  C802  90 11              BCC XXC815
01192  C804  88                 DEY 
01193  C805  18                 CLC 
01194  C806  8A                 TXA 
01195  C807  65 2F              ADC $2F
01196  C809  20 AB CD           JSR XXCDAB
01197  C80C  C8                 INY 
01198  C80D  20 7C CD           JSR XXCD7C
01199  C810  65 30              ADC $30
01200  C812  20 AB CD           JSR XXCDAB
01201  C815  20 63 C9    XXC815 JSR XXC963
01202  C818  88                 DEY 
01203  C819  10 FA              BPL XXC815
01204  C81B  30 98              BMI XXC7B5
01205  C81D  20 87 C8    XXC81D JSR XXC887
01206  C820  85 C3              STA MEMUSS
01207  C822  86 C4              STX MEMUSS+1
01208  C824  20 97 C8           JSR XXC897
01209  C827  85 27              STA RESHO+1
01210  C829  86 28              STX RESHO+2
01211  C82B  20 DB C8           JSR XXC8DB






MONITOR$C000......PAGE 0024

LINE# LOC   CODE        LINE


01212  C82E  20 9A C8    XXC82E JSR XXC89A
01213  C831  85 C1       XXC831 STA STAL
01214  C833  86 C2              STX STAL+1
01215  C835  60                 RTS 
01216  C836              ;********************************
01217  C836  20 87 C8    XXC836 JSR XXC887
01218  C839  B0 F6              BCS XXC831
01219  C83B  20 9A C8    XXC83B JSR XXC89A
01220  C83E  B0 03              BCS XXC843
01221  C840  20 97 C8    XXC840 JSR XXC897
01222  C843  85 C3       XXC843 STA MEMUSS
01223  C845  86 C4              STX MEMUSS+1
01224  C847  60                 RTS 
01225  C848              ;********************************
01226  C848  20 FA C0           JSR XXC0FA
01227  C84B  4C 97 C8           JMP XXC897
01228  C84E              ;********************************
01229  C84E  A5 C2       XXC84E LDA STAL+1
01230  C850  20 55 C8           JSR XXC855
01231  C853  A5 C1              LDA STAL
01232  C855  48          XXC855 PHA 
01233  C856  4A                 LSR A
01234  C857  4A                 LSR A
01235  C858  4A                 LSR A
01236  C859  4A                 LSR A
01237  C85A  20 6D C8           JSR XXC86D
01238  C85D  AA                 TAX 
01239  C85E  68                 PLA 
01240  C85F  29 0F              AND #$0F
01241  C861  20 6D C8           JSR XXC86D
01242  C864  48          XXC864 PHA 
01243  C865  8A                 TXA 
01244  C866  20 09 C0           JSR MCHROT
01245  C869  68                 PLA 
01246  C86A  4C 09 C0           JMP MCHROT
01247  C86D              ;********************************
01248  C86D  18          XXC86D CLC 
01249  C86E  69 F6              ADC #$F6
01250  C870  90 02              BCC XXC874
01251  C872  69 06              ADC #$06
01252  C874  69 3A       XXC874 ADC #$3A        ;':'
01253  C876  60                 RTS 
01254  C877              ;********************************
01255  C877  A2 02       XXC877 LDX #$02
01256  C879  B5 C0       XXC879 LDA CAS1,X
01257  C87B  48                 PHA 
01258  C87C  B5 C2              LDA STAL+1,X
01259  C87E  95 C0              STA CAS1,X
01260  C880  68                 PLA 
01261  C881  95 C2              STA STAL+1,X
01262  C883  CA                 DEX 
01263  C884  D0 F3              BNE XXC879
01264  C886  60                 RTS 
01265  C887              ;********************************
01266  C887  A9 00       XXC887 LDA #$00






MONITOR$C000......PAGE 0025

LINE# LOC   CODE        LINE


01267  C889  85 2C              STA TXTTAB+1
01268  C88B  20 DB C8    XXC88B JSR XXC8DB
01269  C88E  C9 20              CMP #$20        ;' '
01270  C890  F0 F9              BEQ XXC88B
01271  C892  20 BD C8           JSR XXC8BD
01272  C895  B0 08              BCS XXC89F
01273  C897  20 DB C8    XXC897 JSR XXC8DB
01274  C89A  20 A9 C8    XXC89A JSR XXC8A9
01275  C89D  90 07              BCC XXC8A6
01276  C89F  AA          XXC89F TAX 
01277  C8A0  20 A9 C8           JSR XXC8A9
01278  C8A3  90 01              BCC XXC8A6
01279  C8A5  60                 RTS 
01280  C8A6              ;********************************
01281  C8A6  4C 97 C0    XXC8A6 JMP XXC097
01282  C8A9              ;********************************
01283  C8A9  A9 00       XXC8A9 LDA #$00
01284  C8AB  85 2C              STA TXTTAB+1
01285  C8AD  20 DB C8           JSR XXC8DB
01286  C8B0  C9 20       XXC8B0 CMP #$20        ;' '
01287  C8B2  D0 09              BNE XXC8BD
01288  C8B4  20 DB C8           JSR XXC8DB
01289  C8B7  C9 20              CMP #$20        ;' '
01290  C8B9  D0 0E              BNE XXC8C9
01291  C8BB  18                 CLC 
01292  C8BC  60                 RTS 
01293  C8BD              ;********************************
01294  C8BD  20 D0 C8    XXC8BD JSR XXC8D0
01295  C8C0  0A                 ASL A
01296  C8C1  0A                 ASL A
01297  C8C2  0A                 ASL A
01298  C8C3  0A                 ASL A
01299  C8C4  85 2C              STA TXTTAB+1
01300  C8C6  20 DB C8           JSR XXC8DB
01301  C8C9  20 D0 C8    XXC8C9 JSR XXC8D0
01302  C8CC  05 2C              ORA TXTTAB+1
01303  C8CE  38                 SEC 
01304  C8CF  60                 RTS 
01305  C8D0              ;********************************
01306  C8D0  C9 3A       XXC8D0 CMP #$3A        ;':'
01307  C8D2  08                 PHP 
01308  C8D3  29 0F              AND #$0F
01309  C8D5  28                 PLP 
01310  C8D6  90 02              BCC XXC8DA
01311  C8D8  69 08              ADC #$08
01312  C8DA  60          XXC8DA RTS 
01313  C8DB              ;********************************
01314  C8DB  20 06 C0    XXC8DB JSR MCHRIN
01315  C8DE  C9 0D              CMP #$0D
01316  C8E0  D0 F8              BNE XXC8DA
01317  C8E2  4C 9C C0           JMP XXC09C
01318  C8E5              ;********************************
01319  C8E5  A5 91       XXC8E5 LDA $91
01320  C8E7  C9 FE              CMP #$FE
01321  C8E9  D0 07              BNE XXC8F2






MONITOR$C000......PAGE 0026

LINE# LOC   CODE        LINE


01322  C8EB  08                 PHP 
01323  C8EC  20 CC FF           JSR CLRCHN
01324  C8EF  85 C6              STA NDX
01325  C8F1  28                 PLP 
01326  C8F2  60          XXC8F2 RTS 
01327  C8F3              ;********************************
01328  C8F3  20 FC C8    XXC8F3 JSR XXC8FC
01329  C8F6  2C AA AA           BIT $AAAA
01330  C8F9  30 F8              BMI XXC8F3
01331  C8FB  60                 RTS 
01332  C8FC              ;********************************
01333  C8FC  20 E5 C8    XXC8FC JSR XXC8E5
01334  C8FF  D0 0B              BNE XXC90C
01335  C901  20 0D C9           JSR XXC90D
01336  C904  A9 03              LDA #$03
01337  C906  85 9A              STA $9A
01338  C908  A9 00              LDA #$00
01339  C90A  85 99              STA $99
01340  C90C  60          XXC90C RTS 
01341  C90D              ;********************************
01342  C90D  08          XXC90D PHP 
01343  C90E  78                 SEI 
01344  C90F  AD AA AA           LDA $AAAA
01345  C912  09 02              ORA #$02
01346  C914  8D AA AA           STA $AAAA
01347  C917  AD EE CE           LDA XXCEEE
01348  C91A  8D 14 03           STA CINV
01349  C91D  AD EF CE           LDA XXCEEF
01350  C920  8D 15 03           STA CINV+1
01351  C923  28                 PLP 
01352  C924  60                 RTS 
01353  C925              ;********************************
01354  C925  85 03       XXC925 STA ADRAY1
01355  C927  86 02              STX UNUSED
01356  C929  60                 RTS 
01357  C92A              ;********************************
01358  C92A  85 21       XXC92A STA $21
01359  C92C  A0 00              LDY #$00
01360  C92E  20 79 C9    XXC92E JSR XXC979
01361  C931  20 7C CD           JSR XXCD7C
01362  C934  20 55 C8           JSR XXC855
01363  C937  20 63 C9           JSR XXC963
01364  C93A  C6 21              DEC $21
01365  C93C  D0 F0              BNE XXC92E
01366  C93E  60                 RTS 
01367  C93F              ;********************************
01368  C93F  20 A9 C8    XXC93F JSR XXC8A9
01369  C942  90 0C              BCC XXC950
01370  C944  A2 00              LDX #$00
01371  C946  20 57 CD           JSR XXCD57
01372  C949  C1 0D              CMP (VALTYP,X)
01373  C94B  F0 03              BEQ XXC950
01374  C94D  4C 97 C0           JMP XXC097
01375  C950              ;********************************
01376  C950  20 63 C9    XXC950 JSR XXC963






MONITOR$C000......PAGE 0027

LINE# LOC   CODE        LINE


01377  C953  C6 20              DEC TEMPST+7
01378  C955  60                 RTS 
01379  C956              ;********************************
01380  C956  A9 04       XXC956 LDA #$04
01381  C958  85 C1              STA STAL
01382  C95A  A9 00              LDA #$00
01383  C95C  85 C2              STA STAL+1
01384  C95E  A9 05              LDA #$05
01385  C960  E6 0F              INC GARBFL
01386  C962  60                 RTS 
01387  C963              ;********************************
01388  C963  E6 C1       XXC963 INC STAL
01389  C965  D0 06              BNE XXC96D
01390  C967  E6 C2              INC STAL+1
01391  C969  D0 02              BNE XXC96D
01392  C96B  E6 29              INC RESHO+3
01393  C96D  60          XXC96D RTS 
01394  C96E              ;********************************
01395  C96E  98          XXC96E TYA 
01396  C96F  48                 PHA 
01397  C970  20 7C C9           JSR XXC97C
01398  C973  68                 PLA 
01399  C974  A2 2E       XXC974 LDX #$2E        ;'.'
01400  C976  20 64 C8           JSR XXC864
01401  C979  A9 20       XXC979 LDA #$20        ;' '
01402  C97B              ;********************************
01403  C97B  2C                 .BYTE $2C
01404  C97C              ;********************************
01405  C97C  A9 0D       XXC97C LDA #$0D
01406  C97E  4C 09 C0           JMP MCHROT
01407  C981              ;********************************
01408  C981              ; R
01409  C981              ;********************************
01410  C981  A5 C8       ZZC981 LDA $C8
01411  C983  C9 02              CMP #$02
01412  C985  90 21              BCC XXC9A8
01413  C987  20 06 C0           JSR MCHRIN
01414  C98A  C9 42              CMP #$42        ;'B'
01415  C98C  D0 1A              BNE XXC9A8
01416  C98E  A5 1A              LDA TEMPST+1
01417  C990  C9 FF              CMP #$FF
01418  C992  F0 14              BEQ XXC9A8
01419  C994  A6 14              LDX LINNUM
01420  C996  A4 15              LDY LINNUM+1
01421  C998  86 C1              STX STAL
01422  C99A  84 C2              STY STAL+1
01423  C99C  A0 00              LDY #$00
01424  C99E  20 AB CD           JSR XXCDAB
01425  C9A1  A9 FF              LDA #$FF
01426  C9A3  85 1A              STA TEMPST+1
01427  C9A5  4C 9C C0           JMP XXC09C
01428  C9A8              ;********************************
01429  C9A8  A2 00       XXC9A8 LDX #$00
01430  C9AA  BD 97 CE    XXC9AA LDA XXCE97,X
01431  C9AD  20 09 C0           JSR MCHROT






MONITOR$C000......PAGE 0028

LINE# LOC   CODE        LINE


01432  C9B0  E8                 INX 
01433  C9B1  E0 16              CPX #$16
01434  C9B3  D0 F5              BNE XXC9AA
01435  C9B5  20 7C C9           JSR XXC97C
01436  C9B8  A2 2E              LDX #$2E        ;'.'
01437  C9BA  A9 3B              LDA #$3B        ;';'
01438  C9BC  20 64 C8           JSR XXC864
01439  C9BF  A5 02              LDA UNUSED
01440  C9C1  20 55 C8           JSR XXC855
01441  C9C4  A5 03              LDA ADRAY1
01442  C9C6  20 55 C8           JSR XXC855
01443  C9C9  20 56 C9           JSR XXC956
01444  C9CC  20 2A C9           JSR XXC92A
01445  C9CF  C6 0F              DEC GARBFL
01446  C9D1  4C 9C C0    XXC9D1 JMP XXC09C
01447  C9D4              ;********************************
01448  C9D4  4C 97 C0           JMP XXC097
01449  C9D7              ;********************************
01450  C9D7              ; ;
01451  C9D7              ;********************************
01452  C9D7  20 87 C8    ZZC9D7 JSR XXC887
01453  C9DA  20 25 C9           JSR XXC925
01454  C9DD  20 56 C9           JSR XXC956
01455  C9E0  85 20              STA TEMPST+7
01456  C9E2  20 DB C8    XXC9E2 JSR XXC8DB
01457  C9E5  20 3F C9           JSR XXC93F
01458  C9E8  D0 F8              BNE XXC9E2
01459  C9EA  C6 0F              DEC GARBFL
01460  C9EC  F0 E3              BEQ XXC9D1
01461  C9EE              ;********************************
01462  C9EE              ; X
01463  C9EE              ;********************************
01464  C9EE  78          ZZC9EE SEI 
01465  C9EF  20 3A CD           JSR XXCD3A
01466  C9F2  A6 08              LDX ENDCHR
01467  C9F4  9A                 TXS 
01468  C9F5  20 F9 CC           JSR XXCCF9
01469  C9F8  6C 02 A0           JMP ($A002)
01470  C9FB              ;********************************
01471  C9FB  4C 97 C0    XXC9FB JMP XXC097
01472  C9FE              ;********************************
01473  C9FE              ; L AND S
01474  C9FE              ;********************************
01475  C9FE  A0 01       ZZC9FE LDY #$01
01476  CA00  84 BA              STY $BA
01477  CA02  84 B9              STY $B9
01478  CA04  88                 DEY 
01479  CA05  84 B7              STY $B7
01480  CA07  84 90              STY $90
01481  CA09  84 93              STY $93
01482  CA0B  A9 00              LDA #$00
01483  CA0D  85 BC              STA $BC
01484  CA0F  A9 33              LDA #$33        ;'3'
01485  CA11  85 BB              STA $BB
01486  CA13  20 06 C0    XXCA13 JSR MCHRIN






MONITOR$C000......PAGE 0029

LINE# LOC   CODE        LINE


01487  CA16  C9 20              CMP #$20        ;' '
01488  CA18  F0 F9              BEQ XXCA13
01489  CA1A  C9 0D              CMP #$0D
01490  CA1C  F0 1A              BEQ XXCA38
01491  CA1E  C9 22              CMP #$22        ;'"'
01492  CA20  D0 D9       XXCA20 BNE XXC9FB
01493  CA22  20 06 C0    XXCA22 JSR MCHRIN
01494  CA25  C9 22              CMP #$22        ;'"'
01495  CA27  F0 26              BEQ XXCA4F
01496  CA29  C9 0D              CMP #$0D
01497  CA2B  F0 0B              BEQ XXCA38
01498  CA2D  91 BB              STA ($BB),Y
01499  CA2F  E6 B7              INC $B7
01500  CA31  C8                 INY 
01501  CA32  C0 10              CPY #$10
01502  CA34  F0 C5       XXCA34 BEQ XXC9FB
01503  CA36  D0 EA              BNE XXCA22
01504  CA38  A5 1E       XXCA38 LDA $1E
01505  CA3A  C9 4C              CMP #$4C        ;'L'
01506  CA3C  D0 E2       XXCA3C BNE XXCA20
01507  CA3E  A9 00              LDA #$00
01508  CA40  20 D5 FF           JSR LOAD
01509  CA43  20 F3 C8           JSR XXC8F3
01510  CA46  A5 90              LDA $90
01511  CA48  29 10              AND #$10
01512  CA4A  D0 F0       XXCA4A BNE XXCA3C
01513  CA4C  4C 9C C0           JMP XXC09C
01514  CA4F              ;********************************
01515  CA4F  20 06 C0    XXCA4F JSR MCHRIN
01516  CA52  C9 0D              CMP #$0D
01517  CA54  F0 E2              BEQ XXCA38
01518  CA56  C9 2C              CMP #$2C        ;','
01519  CA58  D0 F0       XXCA58 BNE XXCA4A
01520  CA5A  20 A9 C8           JSR XXC8A9
01521  CA5D  29 0F              AND #$0F
01522  CA5F  F0 D3       XXCA5F BEQ XXCA34
01523  CA61  C9 03              CMP #$03
01524  CA63  F0 FA              BEQ XXCA5F
01525  CA65  85 BA              STA $BA
01526  CA67  20 06 C0           JSR MCHRIN
01527  CA6A  C9 0D              CMP #$0D
01528  CA6C  F0 CA              BEQ XXCA38
01529  CA6E  C9 2C              CMP #$2C        ;','
01530  CA70  D0 E6       XXCA70 BNE XXCA58
01531  CA72  20 2E C8           JSR XXC82E
01532  CA75  20 06 C0           JSR MCHRIN
01533  CA78  C9 2C              CMP #$2C        ;','
01534  CA7A  D0 F4       XXCA7A BNE XXCA70
01535  CA7C  20 9A C8           JSR XXC89A
01536  CA7F  85 AE              STA SAL+2
01537  CA81  86 AF              STX SAL+3
01538  CA83  20 06 C0    XXCA83 JSR MCHRIN
01539  CA86  C9 20              CMP #$20        ;' '
01540  CA88  F0 F9              BEQ XXCA83
01541  CA8A  C9 0D              CMP #$0D






MONITOR$C000......PAGE 0030

LINE# LOC   CODE        LINE


01542  CA8C  D0 EC       XXCA8C BNE XXCA7A
01543  CA8E  A5 1E              LDA $1E
01544  CA90  C9 53              CMP #$53        ;'S'
01545  CA92  D0 F8              BNE XXCA8C
01546  CA94  20 7C C9           JSR XXC97C
01547  CA97  A9 00              LDA #$00
01548  CA99  85 B9              STA $B9
01549  CA9B  A6 AE              LDX SAL+2
01550  CA9D  A4 AF              LDY SAL+3
01551  CA9F  A9 C1              LDA #$C1
01552  CAA1  20 D8 FF           JSR SAVE
01553  CAA4  4C 9C C0           JMP XXC09C
01554  CAA7              ;********************************
01555  CAA7              ;
01556  CAA7              ;********************************
01557  CAA7  A5 31       XXCAA7 LDA STREND
01558  CAA9  D0 04              BNE XXCAAF
01559  CAAB  A5 C6              LDA NDX
01560  CAAD  D0 06              BNE XXCAB5
01561  CAAF  68          XXCAAF PLA 
01562  CAB0  A8                 TAY 
01563  CAB1  68                 PLA 
01564  CAB2  AA                 TAX 
01565  CAB3  68                 PLA 
01566  CAB4  40                 RTI 
01567  CAB5              ;********************************
01568  CAB5  AD 77 02    XXCAB5 LDA KEYD
01569  CAB8  C9 11              CMP #$11
01570  CABA  F0 03              BEQ XXCABF
01571  CABC  4C 55 CB           JMP XXCB55
01572  CABF              ;********************************
01573  CABF  A5 D6       XXCABF LDA TBLX
01574  CAC1  C9 18              CMP #$18
01575  CAC3  D0 EA              BNE XXCAAF
01576  CAC5  A5 D1              LDA PNT
01577  CAC7  85 C3              STA MEMUSS
01578  CAC9  A5 D2              LDA PNT+1
01579  CACB  85 C4              STA MEMUSS+1
01580  CACD  A9 19              LDA #$19
01581  CACF  85 2D              STA VARTAB
01582  CAD1  A0 01       XXCAD1 LDY #$01
01583  CAD3  20 B3 CC           JSR XXCCB3
01584  CAD6  C9 3A              CMP #$3A        ;':'
01585  CAD8  F0 19              BEQ XXCAF3
01586  CADA  C9 2C              CMP #$2C        ;','
01587  CADC  F0 15              BEQ XXCAF3
01588  CADE  C9 27              CMP #$27        ;'''
01589  CAE0  F0 11              BEQ XXCAF3
01590  CAE2  C6 2D              DEC VARTAB
01591  CAE4  F0 C9              BEQ XXCAAF
01592  CAE6  38                 SEC 
01593  CAE7  A5 C3              LDA MEMUSS
01594  CAE9  E9 28              SBC #$28        ;'('
01595  CAEB  85 C3              STA MEMUSS
01596  CAED  B0 E2              BCS XXCAD1






MONITOR$C000......PAGE 0031

LINE# LOC   CODE        LINE


01597  CAEF  C6 C4              DEC MEMUSS+1
01598  CAF1  D0 DE              BNE XXCAD1
01599  CAF3  85 1E       XXCAF3 STA $1E
01600  CAF5  20 6F CC           JSR XXCC6F
01601  CAF8  B0 B5              BCS XXCAAF
01602  CAFA  A5 1E              LDA $1E
01603  CAFC  C9 3A              CMP #$3A        ;':'
01604  CAFE  F0 15              BEQ XXCB15
01605  CB00  C9 27              CMP #$27        ;'''
01606  CB02  D0 31              BNE XXCB35
01607  CB04  18                 CLC 
01608  CB05  A9 08              LDA #$08
01609  CB07  65 C1              ADC STAL
01610  CB09  85 C1              STA STAL
01611  CB0B  90 02              BCC XXCB0F
01612  CB0D  E6 C2              INC STAL+1
01613  CB0F  20 BE C3    XXCB0F JSR XXC3BE
01614  CB12  4C 44 CB           JMP XXCB44
01615  CB15              ;********************************
01616  CB15  18          XXCB15 CLC 
01617  CB16  A5 C1              LDA STAL
01618  CB18  69 08              ADC #$08
01619  CB1A  85 C1              STA STAL
01620  CB1C  90 02              BCC XXCB20
01621  CB1E  E6 C2              INC STAL+1
01622  CB20  20 7C C9    XXCB20 JSR XXC97C
01623  CB23  A2 2E              LDX #$2E        ;'.'
01624  CB25  A9 3A              LDA #$3A        ;':'
01625  CB27  20 64 C8           JSR XXC864
01626  CB2A  20 4E C8           JSR XXC84E
01627  CB2D  A9 08              LDA #$08
01628  CB2F  20 2A C9           JSR XXC92A
01629  CB32  4C 44 CB           JMP XXCB44
01630  CB35              ;********************************
01631  CB35  20 1B CC    XXCB35 JSR XXCC1B
01632  CB38  20 B5 C2           JSR XXC2B5
01633  CB3B  A9 00              LDA #$00
01634  CB3D  85 23              STA INDEX+1
01635  CB3F  A0 2C              LDY #$2C        ;','
01636  CB41  20 5B C2           JSR XXC25B
01637  CB44  A9 00       XXCB44 LDA #$00
01638  CB46  85 C6              STA NDX
01639  CB48  85 31              STA STREND
01640  CB4A  85 29              STA RESHO+3
01641  CB4C  20 97 C5           JSR XXC597
01642  CB4F  20 7C C9           JSR XXC97C
01643  CB52  4C AF CA           JMP XXCAAF
01644  CB55              ;********************************
01645  CB55  C9 91       XXCB55 CMP #$91
01646  CB57  F0 03              BEQ XXCB5C
01647  CB59  4C AF CA           JMP XXCAAF
01648  CB5C              ;********************************
01649  CB5C  A5 D6       XXCB5C LDA TBLX
01650  CB5E  F0 03              BEQ XXCB63
01651  CB60  4C AF CA           JMP XXCAAF






MONITOR$C000......PAGE 0032

LINE# LOC   CODE        LINE


01652  CB63              ;********************************
01653  CB63  A5 D1       XXCB63 LDA PNT
01654  CB65  85 C3              STA MEMUSS
01655  CB67  A5 D2              LDA PNT+1
01656  CB69  85 C4              STA MEMUSS+1
01657  CB6B  A9 19              LDA #$19
01658  CB6D  85 2D              STA VARTAB
01659  CB6F  A0 01       XXCB6F LDY #$01
01660  CB71  20 B3 CC           JSR XXCCB3
01661  CB74  C9 3A              CMP #$3A        ;':'
01662  CB76  F0 19              BEQ XXCB91
01663  CB78  C9 2C              CMP #$2C        ;','
01664  CB7A  F0 15              BEQ XXCB91
01665  CB7C  C9 27              CMP #$27        ;'''
01666  CB7E  F0 11              BEQ XXCB91
01667  CB80  C6 2D              DEC VARTAB
01668  CB82  F0 14              BEQ XXCB98
01669  CB84  18                 CLC 
01670  CB85  A5 C3              LDA MEMUSS
01671  CB87  69 28              ADC #$28        ;'('
01672  CB89  85 C3              STA MEMUSS
01673  CB8B  90 E2              BCC XXCB6F
01674  CB8D  E6 C4              INC MEMUSS+1
01675  CB8F  D0 DE              BNE XXCB6F
01676  CB91  85 1E       XXCB91 STA $1E
01677  CB93  20 6F CC           JSR XXCC6F
01678  CB96  90 03              BCC XXCB9B
01679  CB98  4C AF CA    XXCB98 JMP XXCAAF
01680  CB9B              ;********************************
01681  CB9B  A5 1E       XXCB9B LDA $1E
01682  CB9D  C9 3A              CMP #$3A        ;':'
01683  CB9F  F0 18              BEQ XXCBB9
01684  CBA1  C9 27              CMP #$27        ;'''
01685  CBA3  D0 33              BNE XXCBD8
01686  CBA5  20 23 CC           JSR XXCC23
01687  CBA8  38                 SEC 
01688  CBA9  A5 C1              LDA STAL
01689  CBAB  E9 08              SBC #$08
01690  CBAD  85 C1              STA STAL
01691  CBAF  B0 02              BCS XXCBB3
01692  CBB1  C6 C2              DEC STAL+1
01693  CBB3  20 C1 C3    XXCBB3 JSR XXC3C1
01694  CBB6  4C CA CB           JMP XXCBCA
01695  CBB9              ;********************************
01696  CBB9  20 23 CC    XXCBB9 JSR XXCC23
01697  CBBC  38                 SEC 
01698  CBBD  A5 C1              LDA STAL
01699  CBBF  E9 08              SBC #$08
01700  CBC1  85 C1              STA STAL
01701  CBC3  B0 02              BCS XXCBC7
01702  CBC5  C6 C2              DEC STAL+1
01703  CBC7  20 11 C4    XXCBC7 JSR XXC411
01704  CBCA  A9 00       XXCBCA LDA #$00
01705  CBCC  85 C6              STA NDX
01706  CBCE  85 31              STA STREND






MONITOR$C000......PAGE 0033

LINE# LOC   CODE        LINE


01707  CBD0  85 29              STA RESHO+3
01708  CBD2  20 6A CC           JSR XXCC6A
01709  CBD5  4C AF CA           JMP XXCAAF
01710  CBD8              ;********************************
01711  CBD8  20 23 CC    XXCBD8 JSR XXCC23
01712  CBDB  A5 C1              LDA STAL
01713  CBDD  A6 C2              LDX STAL+1
01714  CBDF  85 C3              STA MEMUSS
01715  CBE1  86 C4              STX MEMUSS+1
01716  CBE3  A9 10              LDA #$10
01717  CBE5  85 2D              STA VARTAB
01718  CBE7  38          XXCBE7 SEC 
01719  CBE8  A5 C3              LDA MEMUSS
01720  CBEA  E5 2D              SBC VARTAB
01721  CBEC  85 C1              STA STAL
01722  CBEE  A5 C4              LDA MEMUSS+1
01723  CBF0  E9 00              SBC #$00
01724  CBF2  85 C2              STA STAL+1
01725  CBF4  20 1B CC    XXCBF4 JSR XXCC1B
01726  CBF7  20 B5 C2           JSR XXC2B5
01727  CBFA  20 11 C1           JSR XXC111
01728  CBFD  F0 06              BEQ XXCC05
01729  CBFF  B0 F3              BCS XXCBF4
01730  CC01  C6 2D              DEC VARTAB
01731  CC03  D0 E2              BNE XXCBE7
01732  CC05  E6 22       XXCC05 INC INDEX
01733  CC07  A5 22              LDA INDEX
01734  CC09  20 91 C3           JSR XXC391
01735  CC0C  A2 00              LDX #$00
01736  CC0E  86 23              STX INDEX+1
01737  CC10  A9 2C              LDA #$2C        ;','
01738  CC12  20 74 C9           JSR XXC974
01739  CC15  20 5E C2           JSR XXC25E
01740  CC18  4C CA CB           JMP XXCBCA
01741  CC1B              ;********************************
01742  CC1B  A2 00       XXCC1B LDX #$00
01743  CC1D  20 49 CD           JSR XXCD49
01744  CC20  4C F5 C2           JMP XXC2F5
01745  CC23              ;********************************
01746  CC23              ;********************************
01747  CC23              ;.END
01748  CC23              ;*=$CC23
01749  CC23              ;********************************
01750  CC23  A9 00       XXCC23 LDA #$00
01751  CC25  85 AE              STA SAL+2
01752  CC27  A9 DB              LDA #$DB
01753  CC29  85 AF              STA SAL+3
01754  CC2B  85 B1              STA CMPO+1
01755  CC2D  A9 07              LDA #$07
01756  CC2F  85 AD              STA SAL+1
01757  CC31  85 C4              STA MEMUSS+1
01758  CC33  A9 00              LDA #$00
01759  CC35  85 AC              STA SAL
01760  CC37  A9 28              LDA #$28        ;'('
01761  CC39  85 C3              STA MEMUSS






MONITOR$C000......PAGE 0034

LINE# LOC   CODE        LINE


01762  CC3B  85 B0              STA CMPO
01763  CC3D  A0 BF              LDY #$BF
01764  CC3F  A2 04              LDX #$04
01765  CC41  B1 AC       XXCC41 LDA (SAL),Y
01766  CC43  91 C3              STA (MEMUSS),Y
01767  CC45  B1 AE              LDA (SAL+2),Y
01768  CC47  91 B0              STA (CMPO),Y
01769  CC49  88                 DEY 
01770  CC4A  D0 F5              BNE XXCC41
01771  CC4C  B1 AC              LDA (SAL),Y
01772  CC4E  91 C3              STA (MEMUSS),Y
01773  CC50  B1 AE              LDA (SAL+2),Y
01774  CC52  91 B0              STA (CMPO),Y
01775  CC54  88                 DEY 
01776  CC55  C6 AD              DEC SAL+1
01777  CC57  C6 C4              DEC MEMUSS+1
01778  CC59  C6 AF              DEC SAL+3
01779  CC5B  C6 B1              DEC CMPO+1
01780  CC5D  CA                 DEX 
01781  CC5E  D0 E1              BNE XXCC41
01782  CC60  A2 27              LDX #$27        ;'''
01783  CC62  A9 20              LDA #$20        ;' '
01784  CC64  9D 00 04    XXCC64 STA VICSCN,X
01785  CC67  CA                 DEX 
01786  CC68  10 FA              BPL XXCC64
01787  CC6A  A9 13       XXCC6A LDA #$13
01788  CC6C  4C 09 C0           JMP MCHROT
01789  CC6F              ;********************************
01790  CC6F  C0 28       XXCC6F CPY #$28        ;'('
01791  CC71  D0 02              BNE XXCC75
01792  CC73  38                 SEC 
01793  CC74  60                 RTS 
01794  CC75              ;********************************
01795  CC75  20 B3 CC    XXCC75 JSR XXCCB3
01796  CC78  C9 20              CMP #$20        ;' '
01797  CC7A  F0 F3              BEQ XXCC6F
01798  CC7C  88                 DEY 
01799  CC7D  20 9E CC           JSR XXCC9E
01800  CC80  AA                 TAX 
01801  CC81  20 9E CC           JSR XXCC9E
01802  CC84  85 C1              STA STAL
01803  CC86  86 C2              STX STAL+1
01804  CC88  A9 FF              LDA #$FF
01805  CC8A  85 31              STA STREND
01806  CC8C  85 CC              STA $CC
01807  CC8E  A5 CF              LDA BLNON
01808  CC90  F0 0A              BEQ XXCC9C
01809  CC92  A5 CE              LDA GDBLN
01810  CC94  A4 D3              LDY PNTR
01811  CC96  91 D1              STA (PNT),Y
01812  CC98  A9 00              LDA #$00
01813  CC9A  85 CF              STA BLNON
01814  CC9C  18          XXCC9C CLC 
01815  CC9D  60                 RTS 
01816  CC9E              ;********************************






MONITOR$C000......PAGE 0035

LINE# LOC   CODE        LINE


01817  CC9E  20 B3 CC    XXCC9E JSR XXCCB3
01818  CCA1  20 D0 C8           JSR XXC8D0
01819  CCA4  0A                 ASL A
01820  CCA5  0A                 ASL A
01821  CCA6  0A                 ASL A
01822  CCA7  0A                 ASL A
01823  CCA8  85 2C              STA TXTTAB+1
01824  CCAA  20 B3 CC           JSR XXCCB3
01825  CCAD  20 D0 C8           JSR XXC8D0
01826  CCB0  05 2C              ORA TXTTAB+1
01827  CCB2  60                 RTS 
01828  CCB3              ;********************************
01829  CCB3  B1 C3       XXCCB3 LDA (MEMUSS),Y
01830  CCB5  C8                 INY 
01831  CCB6  29 7F              AND #$7F
01832  CCB8  C9 20              CMP #$20        ;' '
01833  CCBA  B0 02              BCS XXCCBE
01834  CCBC  09 40              ORA #$40        ;'@'
01835  CCBE  60          XXCCBE RTS 
01836  CCBF              ;********************************
01837  CCBF              ; E
01838  CCBF              ;********************************
01839  CCBF  20 87 C8    ZZCCBF JSR XXC887
01840  CCC2  E0 04              CPX #$04
01841  CCC4  90 23              BCC XXCCE9
01842  CCC6  85 F9              STA ROBUF
01843  CCC8  86 FA              STX ROBUF+1
01844  CCCA  8D 83 02           STA MEMSIZ
01845  CCCD  8E 84 02           STX MEMSIZ+1
01846  CCD0  85 C3              STA MEMUSS
01847  CCD2  86 C4              STX MEMUSS+1
01848  CCD4  A0 00              LDY #$00
01849  CCD6  A9 55       XXCCD6 LDA #$55        ;'U'
01850  CCD8  91 C3              STA (MEMUSS),Y
01851  CCDA  D1 C3              CMP (MEMUSS),Y
01852  CCDC  D0 0B              BNE XXCCE9
01853  CCDE  B9 00 00           LDA D6510,Y
01854  CCE1  91 C3              STA (MEMUSS),Y
01855  CCE3  C8                 INY 
01856  CCE4  D0 F0              BNE XXCCD6
01857  CCE6  4C 9C C0           JMP XXC09C
01858  CCE9              ;********************************
01859  CCE9  86 C3       XXCCE9 STX MEMUSS
01860  CCEB  05 C3              ORA MEMUSS
01861  CCED  D0 07              BNE XXCCF6
01862  CCEF  85 F9              STA ROBUF
01863  CCF1  86 FA              STX ROBUF+1
01864  CCF3  4C 9C C0           JMP XXC09C
01865  CCF6              ;********************************
01866  CCF6  4C 97 C0    XXCCF6 JMP XXC097
01867  CCF9              ;********************************
01868  CCF9  48          XXCCF9 PHA 
01869  CCFA  8A                 TXA 
01870  CCFB  48                 PHA 
01871  CCFC  98                 TYA 






MONITOR$C000......PAGE 0036

LINE# LOC   CODE        LINE


01872  CCFD  48                 PHA 
01873  CCFE  A5 FA              LDA ROBUF+1
01874  CD00  F0 11              BEQ XXCD13
01875  CD02  A0 00              LDY #$00
01876  CD04  B9 00 00    XXCD04 LDA D6510,Y
01877  CD07  AA                 TAX 
01878  CD08  B1 F9              LDA (ROBUF),Y
01879  CD0A  99 00 00           STA D6510,Y
01880  CD0D  8A                 TXA 
01881  CD0E  91 F9              STA (ROBUF),Y
01882  CD10  C8                 INY 
01883  CD11  D0 F1              BNE XXCD04
01884  CD13  68          XXCD13 PLA 
01885  CD14  A8                 TAY 
01886  CD15  68                 PLA 
01887  CD16  AA                 TAX 
01888  CD17  68                 PLA 
01889  CD18  60                 RTS 
01890  CD19              ;********************************
01891  CD19  AD 14 03    XXCD19 LDA CINV
01892  CD1C  AE 15 03           LDX CINV+1
01893  CD1F  CD EE CE           CMP XXCEEE
01894  CD22  D0 05              BNE XXCD29
01895  CD24  EC EF CE           CPX XXCEEF
01896  CD27  F0 10              BEQ XXCD39
01897  CD29  85 18       XXCD29 STA $18
01898  CD2B  86 19              STX $19
01899  CD2D  AD EE CE           LDA XXCEEE
01900  CD30  AE EF CE           LDX XXCEEF
01901  CD33  8D 14 03           STA CINV
01902  CD36  8E 15 03           STX CINV+1
01903  CD39  60          XXCD39 RTS 
01904  CD3A              ;********************************
01905  CD3A  A5 18       XXCD3A LDA $18
01906  CD3C  8D 14 03           STA CINV
01907  CD3F  A5 19              LDA $19
01908  CD41  8D 15 03           STA CINV+1
01909  CD44  60                 RTS 
01910  CD45              ;********************************
01911  CD45  A2 02       XXCD45 LDX #$02
01912  CD47  D0 02              BNE XXCD4B
01913  CD49  A2 00       XXCD49 LDX #$00
01914  CD4B  20 63 CD    XXCD4B JSR XXCD63
01915  CD4E  A2 00              LDX #$00
01916  CD50  A1 0D              LDA (VALTYP,X)
01917  CD52  60                 RTS 
01918  CD53              ;********************************
01919  CD53  A2 02       XXCD53 LDX #$02
01920  CD55  D0 02              BNE XXCD59
01921  CD57  A2 00       XXCD57 LDX #$00
01922  CD59  48          XXCD59 PHA 
01923  CD5A  20 63 CD           JSR XXCD63
01924  CD5D  68                 PLA 
01925  CD5E  A2 00              LDX #$00
01926  CD60  81 0D              STA (VALTYP,X)






MONITOR$C000......PAGE 0037

LINE# LOC   CODE        LINE


01927  CD62  60                 RTS 
01928  CD63              ;********************************
01929  CD63  B5 C2       XXCD63 LDA STAL+1,X
01930  CD65  D0 0E              BNE XXCD75
01931  CD67  18                 CLC 
01932  CD68  A5 F9              LDA ROBUF
01933  CD6A  75 C1              ADC STAL,X
01934  CD6C  85 0D              STA VALTYP
01935  CD6E  A5 FA              LDA ROBUF+1
01936  CD70  75 C2              ADC STAL+1,X
01937  CD72  85 0E              STA INTFLG
01938  CD74  60                 RTS 
01939  CD75              ;********************************
01940  CD75  85 0E       XXCD75 STA INTFLG
01941  CD77  B5 C1              LDA STAL,X
01942  CD79  85 0D              STA VALTYP
01943  CD7B  60                 RTS 
01944  CD7C              ;********************************
01945  CD7C  08          XXCD7C PHP 
01946  CD7D  68                 PLA 
01947  CD7E  29 EF              AND #$EF
01948  CD80  48                 PHA 
01949  CD81  84 0C              STY DIMFLG
01950  CD83  98                 TYA 
01951  CD84  18                 CLC 
01952  CD85  65 C1              ADC STAL
01953  CD87  85 0D              STA VALTYP
01954  CD89  A9 00              LDA #$00
01955  CD8B  65 C2              ADC STAL+1
01956  CD8D  85 0E              STA INTFLG
01957  CD8F  C9 01              CMP #$01
01958  CD91  B0 10              BCS XXCDA3
01959  CD93  A5 0F              LDA GARBFL
01960  CD95  D0 0C              BNE XXCDA3
01961  CD97  A5 0D              LDA VALTYP
01962  CD99  65 F9              ADC ROBUF
01963  CD9B  85 0D              STA VALTYP
01964  CD9D  A5 0E              LDA INTFLG
01965  CD9F  65 FA              ADC ROBUF+1
01966  CDA1  85 0E              STA INTFLG
01967  CDA3  A0 00       XXCDA3 LDY #$00
01968  CDA5  B1 0D              LDA (VALTYP),Y
01969  CDA7  A4 0C              LDY DIMFLG
01970  CDA9  28                 PLP 
01971  CDAA  60                 RTS 
01972  CDAB              ;********************************
01973  CDAB  48          XXCDAB PHA 
01974  CDAC  20 7C CD           JSR XXCD7C
01975  CDAF  84 0C              STY DIMFLG
01976  CDB1  A0 00              LDY #$00
01977  CDB3  68                 PLA 
01978  CDB4  91 0D              STA (VALTYP),Y
01979  CDB6  A4 0C              LDY DIMFLG
01980  CDB8  60                 RTS 
01981  CDB9              ;********************************






MONITOR$C000......PAGE 0038

LINE# LOC   CODE        LINE


01982  CDB9              ; MODE TABLE... NYBBLE ORGANIZED
01983  CDB9              ;
01984  CDB9              ; 0= ERR  4= IMPLIED  8= ZER,X   C= ZER,Y
01985  CDB9              ; 1= IMM  5= ACC      9= ABS,X   D= REL
01986  CDB9              ; 2= ZER  6= (IND,X)  A= ABS,Y
01987  CDB9              ; 3= ABS  7= (IND),Y  B= (IND)
01988  CDB9              ;
01989  CDB9              ;********************************
01990  CDB9              ; SUPERMON
01991  CDB9              ;********************************
01992  CDB9              ; MODE TABLE... NYBBLE ORGANIZED
01993  CDB9              ; 0= ERR  4= IMPLIED  8= ZER,X   C= ZER,Y
01994  CDB9              ; 1= IMM  5= ACC      9= ABS,X   D= REL
01995  CDB9              ; 2= ZER  6= (IND,X)  A= ABS,Y
01996  CDB9              ; 3= ABS  7= (IND),Y  B= (IND)
01997  CDB9              ;MODE
01998  CDB9              ;.BYTE $40,$02,$45,$03
01999  CDB9              ;.BYTE $D0,$08,$40,$09
02000  CDB9              ;.BYTE $30,$22,$45,$33
02001  CDB9              ;.BYTE $D0,$08,$40,$09
02002  CDB9              ;.BYTE $40,$02,$45,$33
02003  CDB9              ;.BYTE $D0,$08,$40,$09
02004  CDB9              ;.BYTE $40,$02,$45,$B3
02005  CDB9              ;.BYTE $D0,$08,$40,$09
02006  CDB9              ;.BYTE $00,$22,$44,$33
02007  CDB9              ;.BYTE $D0,$8C,$44,$00
02008  CDB9              ;.BYTE $11,$22,$44,$33
02009  CDB9              ;.BYTE $D0,$8C,$44,$9A
02010  CDB9              ;.BYTE $10,$22,$44,$33
02011  CDB9              ;.BYTE $D0,$08,$40,$09
02012  CDB9              ;.BYTE $10,$22,$44,$33
02013  CDB9              ;.BYTE $D0,$08,$40,$09
02014  CDB9              ;.BYTE $62,$13,$78,$A9
02015  CDB9              ;********************************
02016  CDB9              ;XXCDB9 RTI 
02017  CDB9  40          XXCDB9 .BYTE $40
02018  CDBA  02                 .BYTE $02
02019  CDBB  45                 .BYTE $45       ;'E'
02020  CDBC  03                 .BYTE $03
02021  CDBD  D0                 .BYTE $D0
02022  CDBE  08                 .BYTE $08
02023  CDBF  40                 .BYTE $40       ;'@'
02024  CDC0  09                 .BYTE $09
02025  CDC1  30                 .BYTE $30       ;'0'
02026  CDC2  22                 .BYTE $22       ;'"'
02027  CDC3  45                 .BYTE $45       ;'E'
02028  CDC4  33                 .BYTE $33       ;'3'
02029  CDC5  D0                 .BYTE $D0
02030  CDC6  08                 .BYTE $08
02031  CDC7  40                 .BYTE $40       ;'@'
02032  CDC8  09                 .BYTE $09
02033  CDC9  40                 .BYTE $40       ;'@'
02034  CDCA  02                 .BYTE $02
02035  CDCB  45                 .BYTE $45       ;'E'
02036  CDCC  33                 .BYTE $33       ;'3'






MONITOR$C000......PAGE 0039

LINE# LOC   CODE        LINE


02037  CDCD  D0                 .BYTE $D0
02038  CDCE  08                 .BYTE $08
02039  CDCF  40                 .BYTE $40       ;'@'
02040  CDD0  09                 .BYTE $09
02041  CDD1  40                 .BYTE $40       ;'@'
02042  CDD2  02                 .BYTE $02
02043  CDD3  45                 .BYTE $45       ;'E'
02044  CDD4  B3                 .BYTE $B3
02045  CDD5  D0                 .BYTE $D0
02046  CDD6  08                 .BYTE $08
02047  CDD7  40                 .BYTE $40       ;'@'
02048  CDD8  09                 .BYTE $09
02049  CDD9  00                 .BYTE $00
02050  CDDA  22                 .BYTE $22       ;'"'
02051  CDDB  44                 .BYTE $44       ;'D'
02052  CDDC  33                 .BYTE $33       ;'3'
02053  CDDD  D0                 .BYTE $D0
02054  CDDE  8C                 .BYTE $8C
02055  CDDF  44                 .BYTE $44       ;'D'
02056  CDE0  00                 .BYTE $00
02057  CDE1  11                 .BYTE $11
02058  CDE2  22                 .BYTE $22       ;'"'
02059  CDE3  44                 .BYTE $44       ;'D'
02060  CDE4  33                 .BYTE $33       ;'3'
02061  CDE5  D0                 .BYTE $D0
02062  CDE6  8C                 .BYTE $8C
02063  CDE7  44                 .BYTE $44       ;'D'
02064  CDE8  9A                 .BYTE $9A
02065  CDE9  10                 .BYTE $10
02066  CDEA  22                 .BYTE $22       ;'"'
02067  CDEB  44                 .BYTE $44       ;'D'
02068  CDEC  33                 .BYTE $33       ;'3'
02069  CDED  D0                 .BYTE $D0
02070  CDEE  08                 .BYTE $08
02071  CDEF  40                 .BYTE $40       ;'@'
02072  CDF0  09                 .BYTE $09
02073  CDF1  10                 .BYTE $10
02074  CDF2  22                 .BYTE $22       ;'"'
02075  CDF3  44                 .BYTE $44       ;'D'
02076  CDF4  33                 .BYTE $33       ;'3'
02077  CDF5  D0                 .BYTE $D0
02078  CDF6  08                 .BYTE $08
02079  CDF7  40                 .BYTE $40       ;'@'
02080  CDF8  09                 .BYTE $09
02081  CDF9  62                 .BYTE $62
02082  CDFA  13                 .BYTE $13
02083  CDFB  78                 .BYTE $78
02084  CDFC  A9                 .BYTE $A9
02085  CDFD              ;********************************
02086  CDFD              ; MASTER MODES
02087  CDFD              ; SIX HI-ORDER BITS MODE OPTIONS
02088  CDFD              ; TWO LO-ORDER BIT OPERAND LENGHT
02089  CDFD              ;
02090  CDFD              ;********************************
02091  CDFD              ; SUPERMON






MONITOR$C000......PAGE 0040

LINE# LOC   CODE        LINE


02092  CDFD              ;********************************
02093  CDFD              ;MASTER MODES
02094  CDFD              ;SIX HI-ORDER BITS  MODE OPTIONS
02095  CDFD              ;TWO LO-ORDER BITS  OPERAND LENGTHREADY.
02096  CDFD              ;MODE2
02097  CDFD              ;.BYTE $00,$21,$81,$82
02098  CDFD              ;.BYTE $00,$00,$59,$4D
02099  CDFD              ;.BYTE $91,$92,$86,$4A,$85,$9D
02100  CDFD              ;CHAR1
02101  CDFD              ;.BYTE $2C,$29,$2C,$23,$28,$24
02102  CDFD              ;CHAR2
02103  CDFD              ;.BYTE $59,$00,$58,$24,$24,$00
02104  CDFD              ;********************************
02105  CDFD  00          XXCDFD .BYTE $00
02106  CDFE  21                 .BYTE $21       ;'!'
02107  CDFF  81                 .BYTE $81
02108  CE00  82                 .BYTE $82
02109  CE01  00                 .BYTE $00
02110  CE02  00                 .BYTE $00
02111  CE03  59                 .BYTE $59       ;'Y'
02112  CE04  4D                 .BYTE $4D       ;'M'
02113  CE05  91                 .BYTE $91
02114  CE06  92                 .BYTE $92
02115  CE07  86                 .BYTE $86
02116  CE08  4A                 .BYTE $4A       ;'J'
02117  CE09  85                 .BYTE $85
02118  CE0A  9D          XXCE0A .BYTE $9D
02119  CE0B  2C          XXCE0B .BYTE $2C       ;','
02120  CE0C  29          XXCE0C .BYTE $29       ;')'
02121  CE0D  2C          XXCE0D .BYTE $2C       ;','
02122  CE0E  23          XXCE0E .BYTE $23       ;'#'
02123  CE0F  28          XXCE0F .BYTE $28       ;'('
02124  CE10  24          XXCE10 .BYTE $24       ;'$'
02125  CE11  59                 .BYTE $59       ;'Y'
02126  CE12  00                 .BYTE $00
02127  CE13  58                 .BYTE $58       ;'X'
02128  CE14  24                 .BYTE $24       ;'$'
02129  CE15  24                 .BYTE $24       ;'$'
02130  CE16  00                 .BYTE $00
02131  CE17              ;********************************
02132  CE17              ; PACKED MNEMONICS
02133  CE17              ;********************************
02134  CE17              ; SUPERMON
02135  CE17              ;********************************
02136  CE17              ;MNEML
02137  CE17              ;.BYTE $1C,$8A,$1C,$23
02138  CE17              ;.BYTE $5D,$8B,$1B,$A1
02139  CE17              ;.BYTE $9D,$8A,$1D,$23
02140  CE17              ;.BYTE $9D,$8B,$1D,$A1
02141  CE17              ;.BYTE $00,$29,$19,$AE
02142  CE17              ;.BYTE $69,$A8,$19,$23
02143  CE17              ;.BYTE $24,$53,$1B,$23
02144  CE17              ;.BYTE $24,$53,$19,$A1
02145  CE17              ;.BYTE $00,$1A,$5B,$5B
02146  CE17              ;.BYTE $A5,$69,$24,$24






MONITOR$C000......PAGE 0041

LINE# LOC   CODE        LINE


02147  CE17              ;.BYTE $AE,$AE,$A8,$AD
02148  CE17              ;.BYTE $29,$00,$7C,$00
02149  CE17              ;.BYTE $15,$9C,$6D,$9C
02150  CE17              ;.BYTE $A5,$69,$29,$53
02151  CE17              ;.BYTE $84,$13,$34,$11
02152  CE17              ;.BYTE $A5,$69,$23,$A0
02153  CE17              ;********************************
02154  CE17  1C          XXCE17 .BYTE $1C
02155  CE18  8A                 .BYTE $8A
02156  CE19  1C                 .BYTE $1C
02157  CE1A  23                 .BYTE $23       ;'#'
02158  CE1B  5D                 .BYTE $5D       ;']'
02159  CE1C  8B                 .BYTE $8B
02160  CE1D  1B                 .BYTE $1B
02161  CE1E  A1                 .BYTE $A1
02162  CE1F  9D                 .BYTE $9D
02163  CE20  8A                 .BYTE $8A
02164  CE21  1D                 .BYTE $1D
02165  CE22  23                 .BYTE $23       ;'#'
02166  CE23  9D                 .BYTE $9D
02167  CE24  8B                 .BYTE $8B
02168  CE25  1D                 .BYTE $1D
02169  CE26  A1                 .BYTE $A1
02170  CE27  00                 .BYTE $00
02171  CE28  29                 .BYTE $29       ;')'
02172  CE29  19                 .BYTE $19
02173  CE2A  AE                 .BYTE $AE
02174  CE2B  69                 .BYTE $69
02175  CE2C  A8                 .BYTE $A8
02176  CE2D  19                 .BYTE $19
02177  CE2E  23                 .BYTE $23       ;'#'
02178  CE2F  24                 .BYTE $24       ;'$'
02179  CE30  53                 .BYTE $53       ;'S'
02180  CE31  1B                 .BYTE $1B
02181  CE32  23                 .BYTE $23       ;'#'
02182  CE33  24                 .BYTE $24       ;'$'
02183  CE34  53                 .BYTE $53       ;'S'
02184  CE35  19                 .BYTE $19
02185  CE36  A1                 .BYTE $A1
02186  CE37  00                 .BYTE $00
02187  CE38  1A                 .BYTE $1A
02188  CE39  5B                 .BYTE $5B       ;'['
02189  CE3A  5B                 .BYTE $5B       ;'['
02190  CE3B  A5                 .BYTE $A5
02191  CE3C  69                 .BYTE $69
02192  CE3D  24                 .BYTE $24       ;'$'
02193  CE3E  24                 .BYTE $24       ;'$'
02194  CE3F  AE                 .BYTE $AE
02195  CE40  AE                 .BYTE $AE
02196  CE41  A8                 .BYTE $A8
02197  CE42  AD                 .BYTE $AD
02198  CE43  29                 .BYTE $29       ;')'
02199  CE44  00                 .BYTE $00
02200  CE45  7C                 .BYTE $7C
02201  CE46  00                 .BYTE $00






MONITOR$C000......PAGE 0042

LINE# LOC   CODE        LINE


02202  CE47  15                 .BYTE $15
02203  CE48  9C                 .BYTE $9C
02204  CE49  6D                 .BYTE $6D
02205  CE4A  9C                 .BYTE $9C
02206  CE4B  A5                 .BYTE $A5
02207  CE4C  69                 .BYTE $69
02208  CE4D  29                 .BYTE $29       ;')'
02209  CE4E  53                 .BYTE $53       ;'S'
02210  CE4F  84                 .BYTE $84
02211  CE50  13                 .BYTE $13
02212  CE51  34                 .BYTE $34       ;'4'
02213  CE52  11                 .BYTE $11
02214  CE53  A5                 .BYTE $A5
02215  CE54  69                 .BYTE $69
02216  CE55  23                 .BYTE $23       ;'#'
02217  CE56  A0                 .BYTE $A0
02218  CE57              ;********************************
02219  CE57              ; PACKED MNEMONICS
02220  CE57              ;********************************
02221  CE57              ; SUPERMON
02222  CE57              ;********************************
02223  CE57              ;MNEMR
02224  CE57              ;.BYTE $D8,$62,$5A,$48
02225  CE57              ;.BYTE $26,$62,$94,$88
02226  CE57              ;.BYTE $54,$44,$C8,$54
02227  CE57              ;.BYTE $68,$44,$E8,$94
02228  CE57              ;.BYTE $00,$B4,$08,$84
02229  CE57              ;.BYTE $74,$B4,$28,$6E
02230  CE57              ;.BYTE $74,$F4,$CC,$4A
02231  CE57              ;.BYTE $72,$F2,$A4,$8A
02232  CE57              ;.BYTE $00,$AA,$A2,$A2
02233  CE57              ;.BYTE $74,$74,$74,$72
02234  CE57              ;.BYTE $44,$68,$B2,$32
02235  CE57              ;.BYTE $B2,$00,$22,$00
02236  CE57              ;.BYTE $1A,$1A,$26,$26
02237  CE57              ;.BYTE $72,$72,$88,$C8
02238  CE57              ;.BYTE $C4,$CA,$26,$48
02239  CE57              ;.BYTE $44,$44,$A2,$C8
02240  CE57              ;********************************
02241  CE57  D8          XXCE57 .BYTE $D8
02242  CE58  62                 .BYTE $62
02243  CE59  5A                 .BYTE $5A       ;'Z'
02244  CE5A  48                 .BYTE $48       ;'H'
02245  CE5B  26                 .BYTE $26       ;'&'
02246  CE5C  62                 .BYTE $62
02247  CE5D  94                 .BYTE $94
02248  CE5E  88                 .BYTE $88
02249  CE5F  54                 .BYTE $54       ;'T'
02250  CE60  44                 .BYTE $44       ;'D'
02251  CE61  C8                 .BYTE $C8
02252  CE62  54                 .BYTE $54       ;'T'
02253  CE63  68                 .BYTE $68
02254  CE64  44                 .BYTE $44       ;'D'
02255  CE65  E8                 .BYTE $E8
02256  CE66  94                 .BYTE $94






MONITOR$C000......PAGE 0043

LINE# LOC   CODE        LINE


02257  CE67  00                 .BYTE $00
02258  CE68  B4                 .BYTE $B4
02259  CE69  08                 .BYTE $08
02260  CE6A  84                 .BYTE $84
02261  CE6B  74                 .BYTE $74
02262  CE6C  B4                 .BYTE $B4
02263  CE6D  28                 .BYTE $28       ;'('
02264  CE6E  6E                 .BYTE $6E
02265  CE6F  74                 .BYTE $74
02266  CE70  F4                 .BYTE $F4
02267  CE71  CC                 .BYTE $CC
02268  CE72  4A                 .BYTE $4A       ;'J'
02269  CE73  72                 .BYTE $72
02270  CE74  F2                 .BYTE $F2
02271  CE75  A4                 .BYTE $A4
02272  CE76  8A                 .BYTE $8A
02273  CE77  00                 .BYTE $00
02274  CE78  AA                 .BYTE $AA
02275  CE79  A2                 .BYTE $A2
02276  CE7A  A2                 .BYTE $A2
02277  CE7B  74                 .BYTE $74
02278  CE7C  74                 .BYTE $74
02279  CE7D  74                 .BYTE $74
02280  CE7E  72                 .BYTE $72
02281  CE7F  44                 .BYTE $44       ;'D'
02282  CE80  68                 .BYTE $68
02283  CE81  B2                 .BYTE $B2
02284  CE82  32                 .BYTE $32       ;'2'
02285  CE83  B2                 .BYTE $B2
02286  CE84  00                 .BYTE $00
02287  CE85  22                 .BYTE $22       ;'"'
02288  CE86  00                 .BYTE $00
02289  CE87  1A                 .BYTE $1A
02290  CE88  1A                 .BYTE $1A
02291  CE89  26                 .BYTE $26       ;'&'
02292  CE8A  26                 .BYTE $26       ;'&'
02293  CE8B  72                 .BYTE $72
02294  CE8C  72                 .BYTE $72
02295  CE8D  88                 .BYTE $88
02296  CE8E  C8                 .BYTE $C8
02297  CE8F  C4                 .BYTE $C4
02298  CE90  CA                 .BYTE $CA
02299  CE91  26                 .BYTE $26       ;'&'
02300  CE92  48                 .BYTE $48       ;'H'
02301  CE93  44                 .BYTE $44       ;'D'
02302  CE94  44                 .BYTE $44       ;'D'
02303  CE95  A2                 .BYTE $A2
02304  CE96  C8                 .BYTE $C8
02305  CE97              ;*****************************
02306  CE97              ; REGISTER HEADING
02307  CE97              ;*****************************
02308  CE97  0D          XXCE97 .BYTE $0D
02309  CE98  20 20              .BYTE '   PC  SR AC XR YR SP'
02310  CEAD              ;*****************************
02311  CEAD              ; COMMANDS






MONITOR$C000......PAGE 0044

LINE# LOC   CODE        LINE


02312  CEAD              ;*****************************
02313  CEAD  41 42       XXCEAD .BYTE 'ABCDFGHILMNQRSTWX,:'
02314  CEC0  3B 45              .BYTE ';E'
02315  CEC2              ;*****************************
02316  CEC2              ; COMMAND VECTOR TABLE
02317  CEC2              ;*****************************
02318  CEC2              ;A
02319  CEC2  4C          XXCEC2 .BYTE <ZZC44C   ;'$4C ;L'
02320  CEC3  C4          XXCEC3 .BYTE >ZZC44C   ;$C4
02321  CEC4              ;B
02322  CEC4  6A                 .BYTE <ZZC76A   ;$6A
02323  CEC5  C7                 .BYTE >ZZC76A   ;$C7
02324  CEC6              ;C
02325  CEC6  21                 .BYTE <ZZC121   ;$21 ;'!'
02326  CEC7  C1                 .BYTE >ZZC121   ;$C1
02327  CEC8              ;D
02328  CEC8  41                 .BYTE <ZZC241   ;$41 ;'A'
02329  CEC9  C2                 .BYTE >ZZC241   ;$C2
02330  CECA              ;F
02331  CECA  9B                 .BYTE <ZZC19B   ;$9B
02332  CECB  C1                 .BYTE >ZZC19B   ;$C1
02333  CECC              ;G
02334  CECC  A2                 .BYTE <ZZC6A2   ;$A2
02335  CECD  C6                 .BYTE >ZZC6A2   ;$C6
02336  CECE              ;H
02337  CECE  C4                 .BYTE <ZZC1C4   ;$C4
02338  CECF  C1                 .BYTE >ZZC1C4   ;$C1
02339  CED0              ;I
02340  CED0  96                 .BYTE <ZZC396   ;$96
02341  CED1  C3                 .BYTE >ZZC396   ;$C3
02342  CED2              ;L
02343  CED2  FE                 .BYTE <ZZC9FE   ;$FE
02344  CED3  C9                 .BYTE >ZZC9FE   ;$C9
02345  CED4              ;M
02346  CED4  99                 .BYTE <ZZC399   ;$99
02347  CED5  C3                 .BYTE >ZZC399   ;$C3
02348  CED6              ;N
02349  CED6  8D                 .BYTE <ZZC78D   ;$8D
02350  CED7  C7                 .BYTE >ZZC78D   ;$C7
02351  CED8              ;Q
02352  CED8  A6                 .BYTE <ZZC6A6   ;$A6
02353  CED9  C6                 .BYTE >ZZC6A6   ;$C6
02354  CEDA              ;R
02355  CEDA  81                 .BYTE <ZZC981   ;$81
02356  CEDB  C9                 .BYTE >ZZC981   ;$C9
02357  CEDC              ;S
02358  CEDC  FE                 .BYTE <ZZC9FE   ;$FE
02359  CEDD  C9                 .BYTE >ZZC9FE   ;$C9
02360  CEDE              ;T
02361  CEDE  25                 .BYTE <ZZC125   ;$25 ;'%'
02362  CEDF  C1                 .BYTE >ZZC125   ;$C1
02363  CEE0              ;W
02364  CEE0  AA                 .BYTE <ZZC6AA   ;$AA
02365  CEE1  C6                 .BYTE >ZZC6AA   ;$C6
02366  CEE2              ;X






MONITOR$C000......PAGE 0045

LINE# LOC   CODE        LINE


02367  CEE2  EE                 .BYTE <ZZC9EE   ;$EE
02368  CEE3  C9                 .BYTE >ZZC9EE   ;$C9
02369  CEE4              ;,
02370  CEE4  4C                 .BYTE <ZZC44C   ;$4C ;'L'
02371  CEE5  C4                 .BYTE >ZZC44C   ;$C4
02372  CEE6              ;:
02373  CEE6  20                 .BYTE <ZZC420   ;$20 ;' '
02374  CEE7  C4                 .BYTE >ZZC420   ;$C4
02375  CEE8              ;;
02376  CEE8  D7                 .BYTE <ZZC9D7   ;$D7
02377  CEE9  C9                 .BYTE >ZZC9D7   ;$C9
02378  CEEA              ;E
02379  CEEA  BF                 .BYTE <ZZCCBF   ;$BF
02380  CEEB  CC                 .BYTE >ZZCCBF   ;$CC
02381  CEEC              ;?
02382  CEEC  00                 .BYTE <ENTRY    ;$00
02383  CEED  C0                 .BYTE >ENTRY    ;$C0
02384  CEEE              ;*****************************
02385  CEEE              ;
02386  CEEE              ;*****************************
02387  CEEE              ;XXCEEE .BYTE $74
02388  CEEE              ;XXCEEF .BYTE $C3
02389  CEEE  74          XXCEEE .BYTE <XXC374
02390  CEEF  C3          XXCEEF .BYTE >XXC374
02391  CEF0              ;XXCEEE .WORD XXC374
02392  CEF0              ;*****************************
02393  CEF0              ;
02394  CEF0              ;*****************************
02395  CEF0              ;XXCEF0 .BYTE $C8
02396  CEF0              ;XXCEF1 .BYTE $C5
02397  CEF0  C8          XXCEF0 .BYTE <XXC5C8
02398  CEF1  C5          XXCEF1 .BYTE >XXC5C8
02399  CEF2              ;XXCEF0 .WORD XXC5C8
02400  CEF2              ;*****************************
02401  CEF2              ; NMI VECTOR
02402  CEF2              ;*****************************
02403  CEF2              ;XXCEF2 .BYTE $3F ;'?'
02404  CEF2              ;XXCEF3 .BYTE $C0
02405  CEF2  3F          XXCEF2 .BYTE <XXC03F
02406  CEF3  C0          XXCEF3 .BYTE >XXC03F
02407  CEF4              ;XXCEF2 .WORD XXC03F
02408  CEF4              ;*****************************
02409  CEF4              ;
02410  CEF4              ;*****************************
02411  CEF4              ;XXCEF4 .BYTE $A7
02412  CEF4              ;XXCEF5 .BYTE $CA
02413  CEF4  A7          XXCEF4 .BYTE <XXCAA7
02414  CEF5  CA          XXCEF5 .BYTE >XXCAA7
02415  CEF6              ;XXCEF4 .WORD XXCAA7
02416  CEF6              ;*****************************
02417  CEF6              ;
02418  CEF6              ;*****************************
02419  CEF6              ;XXCEF6 .BYTE $AA
02420  CEF6              ;XXCEF7 .BYTE $C5
02421  CEF6  AA          XXCEF6 .BYTE <XXC5AB-1






MONITOR$C000......PAGE 0046

LINE# LOC   CODE        LINE


02422  CEF7  C5          XXCEF7 .BYTE >XXC5AB
02423  CEF8              ;XXCEF6 .WORD XXC5AB-1
02424  CEF8              ;*****************************
02425  CEF8              ; PATCH AREA
02426  CEF8              ;*****************************
02427  CEF8  AA                 .BYTE $AA
02428  CEF9  AA                 .BYTE $AA
02429  CEFA  AA                 .BYTE $AA
02430  CEFB  AA                 .BYTE $AA
02431  CEFC  AA                 .BYTE $AA
02432  CEFD  AA                 .BYTE $AA
02433  CEFE  AA                 .BYTE $AA
02434  CEFF  AA                 .BYTE $AA
02435  CF00  AA                 .BYTE $AA
02436  CF01  AA                 .BYTE $AA
02437  CF02  AA                 .BYTE $AA
02438  CF03  AA                 .BYTE $AA
02439  CF04  AA                 .BYTE $AA
02440  CF05  AA                 .BYTE $AA
02441  CF06  AA                 .BYTE $AA
02442  CF07  AA                 .BYTE $AA
02443  CF08  AA                 .BYTE $AA
02444  CF09  AA                 .BYTE $AA
02445  CF0A  AA                 .BYTE $AA
02446  CF0B  AA                 .BYTE $AA
02447  CF0C  AA                 .BYTE $AA
02448  CF0D  AA                 .BYTE $AA
02449  CF0E  AA                 .BYTE $AA
02450  CF0F  AA                 .BYTE $AA
02451  CF10  AA                 .BYTE $AA
02452  CF11  AA                 .BYTE $AA
02453  CF12  AA                 .BYTE $AA
02454  CF13  AA                 .BYTE $AA
02455  CF14  AA                 .BYTE $AA
02456  CF15  AA                 .BYTE $AA
02457  CF16  AA                 .BYTE $AA
02458  CF17  AA                 .BYTE $AA
02459  CF18  AA                 .BYTE $AA
02460  CF19  AA                 .BYTE $AA
02461  CF1A  AA                 .BYTE $AA
02462  CF1B  AA                 .BYTE $AA
02463  CF1C  AA                 .BYTE $AA
02464  CF1D  AA                 .BYTE $AA
02465  CF1E  AA                 .BYTE $AA
02466  CF1F  AA                 .BYTE $AA
02467  CF20  AA                 .BYTE $AA
02468  CF21  AA                 .BYTE $AA
02469  CF22  AA                 .BYTE $AA
02470  CF23  AA                 .BYTE $AA
02471  CF24  AA                 .BYTE $AA
02472  CF25  AA                 .BYTE $AA
02473  CF26  AA                 .BYTE $AA
02474  CF27  AA                 .BYTE $AA
02475  CF28  AA                 .BYTE $AA
02476  CF29  AA                 .BYTE $AA






MONITOR$C000......PAGE 0047

LINE# LOC   CODE        LINE


02477  CF2A  AA                 .BYTE $AA
02478  CF2B  AA                 .BYTE $AA
02479  CF2C  AA                 .BYTE $AA
02480  CF2D  AA                 .BYTE $AA
02481  CF2E  AA                 .BYTE $AA
02482  CF2F  AA                 .BYTE $AA
02483  CF30  AA                 .BYTE $AA
02484  CF31  AA                 .BYTE $AA
02485  CF32  AA                 .BYTE $AA
02486  CF33  AA                 .BYTE $AA
02487  CF34  AA                 .BYTE $AA
02488  CF35  AA                 .BYTE $AA
02489  CF36  AA                 .BYTE $AA
02490  CF37  AA                 .BYTE $AA
02491  CF38  AA                 .BYTE $AA
02492  CF39  AA                 .BYTE $AA
02493  CF3A  AA                 .BYTE $AA
02494  CF3B  AA                 .BYTE $AA
02495  CF3C  AA                 .BYTE $AA
02496  CF3D  AA                 .BYTE $AA
02497  CF3E  AA                 .BYTE $AA
02498  CF3F  AA                 .BYTE $AA
02499  CF40  AA                 .BYTE $AA
02500  CF41  AA                 .BYTE $AA
02501  CF42  AA                 .BYTE $AA
02502  CF43  AA                 .BYTE $AA
02503  CF44  AA                 .BYTE $AA
02504  CF45  AA                 .BYTE $AA
02505  CF46  AA                 .BYTE $AA
02506  CF47  AA                 .BYTE $AA
02507  CF48  AA                 .BYTE $AA
02508  CF49  AA                 .BYTE $AA
02509  CF4A  AA                 .BYTE $AA
02510  CF4B  AA                 .BYTE $AA
02511  CF4C  AA                 .BYTE $AA
02512  CF4D  AA                 .BYTE $AA
02513  CF4E  AA                 .BYTE $AA
02514  CF4F  AA                 .BYTE $AA
02515  CF50  AA                 .BYTE $AA
02516  CF51  AA                 .BYTE $AA
02517  CF52  AA                 .BYTE $AA
02518  CF53  AA                 .BYTE $AA
02519  CF54  AA                 .BYTE $AA
02520  CF55  AA                 .BYTE $AA
02521  CF56  AA                 .BYTE $AA
02522  CF57  AA                 .BYTE $AA
02523  CF58  AA                 .BYTE $AA
02524  CF59  AA                 .BYTE $AA
02525  CF5A  AA                 .BYTE $AA
02526  CF5B  AA                 .BYTE $AA
02527  CF5C  AA                 .BYTE $AA
02528  CF5D  AA                 .BYTE $AA
02529  CF5E  AA                 .BYTE $AA
02530  CF5F  AA                 .BYTE $AA
02531  CF60  AA                 .BYTE $AA






MONITOR$C000......PAGE 0048

LINE# LOC   CODE        LINE


02532  CF61  AA                 .BYTE $AA
02533  CF62  AA                 .BYTE $AA
02534  CF63  AA                 .BYTE $AA
02535  CF64  AA                 .BYTE $AA
02536  CF65  AA                 .BYTE $AA
02537  CF66  AA                 .BYTE $AA
02538  CF67  AA                 .BYTE $AA
02539  CF68  AA                 .BYTE $AA
02540  CF69  AA                 .BYTE $AA
02541  CF6A  AA                 .BYTE $AA
02542  CF6B  AA                 .BYTE $AA
02543  CF6C  AA                 .BYTE $AA
02544  CF6D  AA                 .BYTE $AA
02545  CF6E  AA                 .BYTE $AA
02546  CF6F  AA                 .BYTE $AA
02547  CF70  AA                 .BYTE $AA
02548  CF71  AA                 .BYTE $AA
02549  CF72  AA                 .BYTE $AA
02550  CF73  AA                 .BYTE $AA
02551  CF74  AA                 .BYTE $AA
02552  CF75  AA                 .BYTE $AA
02553  CF76  AA                 .BYTE $AA
02554  CF77  AA                 .BYTE $AA
02555  CF78  AA                 .BYTE $AA
02556  CF79  AA                 .BYTE $AA
02557  CF7A  AA                 .BYTE $AA
02558  CF7B  AA                 .BYTE $AA
02559  CF7C  AA                 .BYTE $AA
02560  CF7D  AA                 .BYTE $AA
02561  CF7E  AA                 .BYTE $AA
02562  CF7F  AA                 .BYTE $AA
02563  CF80  AA                 .BYTE $AA
02564  CF81  AA                 .BYTE $AA
02565  CF82  AA                 .BYTE $AA
02566  CF83  AA                 .BYTE $AA
02567  CF84  AA                 .BYTE $AA
02568  CF85  AA                 .BYTE $AA
02569  CF86  AA                 .BYTE $AA
02570  CF87  AA                 .BYTE $AA
02571  CF88  AA                 .BYTE $AA
02572  CF89  AA                 .BYTE $AA
02573  CF8A  AA                 .BYTE $AA
02574  CF8B  AA                 .BYTE $AA
02575  CF8C  AA                 .BYTE $AA
02576  CF8D  AA                 .BYTE $AA
02577  CF8E  AA                 .BYTE $AA
02578  CF8F  AA                 .BYTE $AA
02579  CF90  AA                 .BYTE $AA
02580  CF91  AA                 .BYTE $AA
02581  CF92  AA                 .BYTE $AA
02582  CF93  AA                 .BYTE $AA
02583  CF94  AA                 .BYTE $AA
02584  CF95  AA                 .BYTE $AA
02585  CF96  AA                 .BYTE $AA
02586  CF97  AA                 .BYTE $AA






MONITOR$C000......PAGE 0049

LINE# LOC   CODE        LINE


02587  CF98  AA                 .BYTE $AA
02588  CF99  AA                 .BYTE $AA
02589  CF9A  AA                 .BYTE $AA
02590  CF9B  AA                 .BYTE $AA
02591  CF9C  AA                 .BYTE $AA
02592  CF9D  AA                 .BYTE $AA
02593  CF9E  AA                 .BYTE $AA
02594  CF9F  AA                 .BYTE $AA
02595  CFA0  AA                 .BYTE $AA
02596  CFA1  AA                 .BYTE $AA
02597  CFA2  AA                 .BYTE $AA
02598  CFA3  AA                 .BYTE $AA
02599  CFA4  AA                 .BYTE $AA
02600  CFA5  AA                 .BYTE $AA
02601  CFA6  AA                 .BYTE $AA
02602  CFA7  AA                 .BYTE $AA
02603  CFA8  AA                 .BYTE $AA
02604  CFA9  AA                 .BYTE $AA
02605  CFAA  AA                 .BYTE $AA
02606  CFAB  AA                 .BYTE $AA
02607  CFAC  AA                 .BYTE $AA
02608  CFAD  AA                 .BYTE $AA
02609  CFAE  AA                 .BYTE $AA
02610  CFAF  AA                 .BYTE $AA
02611  CFB0  AA                 .BYTE $AA
02612  CFB1  AA                 .BYTE $AA
02613  CFB2  AA                 .BYTE $AA
02614  CFB3  AA                 .BYTE $AA
02615  CFB4  AA                 .BYTE $AA
02616  CFB5  AA                 .BYTE $AA
02617  CFB6  AA                 .BYTE $AA
02618  CFB7  AA                 .BYTE $AA
02619  CFB8  AA                 .BYTE $AA
02620  CFB9  AA                 .BYTE $AA
02621  CFBA  AA                 .BYTE $AA
02622  CFBB  AA                 .BYTE $AA
02623  CFBC  AA                 .BYTE $AA
02624  CFBD  AA                 .BYTE $AA
02625  CFBE  AA                 .BYTE $AA
02626  CFBF  AA                 .BYTE $AA
02627  CFC0  AA                 .BYTE $AA
02628  CFC1  AA                 .BYTE $AA
02629  CFC2  AA                 .BYTE $AA
02630  CFC3  AA                 .BYTE $AA
02631  CFC4  AA                 .BYTE $AA
02632  CFC5  AA                 .BYTE $AA
02633  CFC6  AA                 .BYTE $AA
02634  CFC7  AA                 .BYTE $AA
02635  CFC8  AA                 .BYTE $AA
02636  CFC9  AA                 .BYTE $AA
02637  CFCA  AA                 .BYTE $AA
02638  CFCB  AA                 .BYTE $AA
02639  CFCC  AA                 .BYTE $AA
02640  CFCD  AA                 .BYTE $AA
02641  CFCE  AA                 .BYTE $AA






MONITOR$C000......PAGE 0050

LINE# LOC   CODE        LINE


02642  CFCF  AA                 .BYTE $AA
02643  CFD0  AA                 .BYTE $AA
02644  CFD1  AA                 .BYTE $AA
02645  CFD2  AA                 .BYTE $AA
02646  CFD3  AA                 .BYTE $AA
02647  CFD4  AA                 .BYTE $AA
02648  CFD5  AA                 .BYTE $AA
02649  CFD6  AA                 .BYTE $AA
02650  CFD7  AA                 .BYTE $AA
02651  CFD8  AA                 .BYTE $AA
02652  CFD9  AA                 .BYTE $AA
02653  CFDA  AA                 .BYTE $AA
02654  CFDB  AA                 .BYTE $AA
02655  CFDC  AA                 .BYTE $AA
02656  CFDD  AA                 .BYTE $AA
02657  CFDE  AA                 .BYTE $AA
02658  CFDF  AA                 .BYTE $AA
02659  CFE0  AA                 .BYTE $AA
02660  CFE1  AA                 .BYTE $AA
02661  CFE2  AA                 .BYTE $AA
02662  CFE3  AA                 .BYTE $AA
02663  CFE4  AA                 .BYTE $AA
02664  CFE5  AA                 .BYTE $AA
02665  CFE6  AA                 .BYTE $AA
02666  CFE7  AA                 .BYTE $AA
02667  CFE8  AA                 .BYTE $AA
02668  CFE9  AA                 .BYTE $AA
02669  CFEA  AA                 .BYTE $AA
02670  CFEB  AA                 .BYTE $AA
02671  CFEC  AA                 .BYTE $AA
02672  CFED  AA                 .BYTE $AA
02673  CFEE  AA                 .BYTE $AA
02674  CFEF  AA                 .BYTE $AA
02675  CFF0  AA                 .BYTE $AA
02676  CFF1  AA                 .BYTE $AA
02677  CFF2  AA                 .BYTE $AA
02678  CFF3  AA                 .BYTE $AA
02679  CFF4  AA                 .BYTE $AA
02680  CFF5  AA                 .BYTE $AA
02681  CFF6  AA                 .BYTE $AA
02682  CFF7  AA                 .BYTE $AA
02683  CFF8  AA                 .BYTE $AA
02684  CFF9  AA                 .BYTE $AA
02685  CFFA  AA                 .BYTE $AA
02686  CFFB  AA                 .BYTE $AA
02687  CFFC  AA                 .BYTE $AA
02688  CFFD  AA                 .BYTE $AA
02689  CFFE  AA                 .BYTE $AA
02690  CFFF              ;********************************
02691  CFFF              ; GARBAGE BYTE @ START + $0FFF
02692  CFFF              ;********************************
02693  CFFF              ;       .BYTE $94
02694  CFFF              ;********************************
02695  CFFF              .END







MONITOR$C000......PAGE 0051

LINE# LOC   CODE        LINE


ERRORS = 00000


SYMBOL TABLE

SYMBOL VALUE
 ADRAY1   0003    ADRAY2   0005    BLNON    00CF    CAS1     00C0
 CBINV    0316    CHANNL   0013    CHARAC   0007    CHRIN    FFCF
 CHROUT   FFD2    CINV     0314    CLRCHN   FFCC    CMPO     00B0
 D6510    0000    DIMFLG   000C    ENDCHR   0008    ENTRY    C000
 FRETOP   0033    GARBFL   000F    GDBLN    00CE    GETIN    FFE4
 INDEX    0022    INPFLG   0011    INTFLG   000E    KEYD     0277
 LINNUM   0014    LOAD     FFD5    MCHRIN   C006    MCHROT   C009
 MEMSIZ   0283    MEMUSS   00C3    NDX      00C6    NMINV    0318
 PNT      00D1    PNTR     00D3    RESHO    0026    ROBUF    00F9
 SAL      00AC    SAVE     FFD8    SETMSG   FF90    STACK    0100
 STAL     00C1    STREND   0031    SUBFLG   0010    TANSGN   0012
 TBLX     00D6    TEMPST   0019    TXTTAB   002B    UNUSED   0002
 VALTYP   000D    VARTAB   002D    VICSCN   0400    XXC003   C003
 XXC00C   C00C    XXC03F   C03F    XXC084   C084    XXC087   C087
 XXC08A   C08A    XXC08F   C08F    XXC097   C097    XXC09C   C09C
 XXC0AC   C0AC    XXC0B9   C0B9    XXC0D0   C0D0    XXC0D5   C0D5
 XXC0D9   C0D9    XXC0DB   C0DB    XXC0E5   C0E5    XXC0E7   C0E7
 XXC0EA   C0EA    XXC0F3   C0F3    XXC0FA   C0FA    XXC0FC   C0FC
 XXC10A   C10A    XXC111   C111    XXC115   C115    XXC127   C127
 XXC137   C137    XXC13F   C13F    XXC148   C148    XXC151   C151
 XXC163   C163    XXC177   C177    XXC188   C188    XXC18C   C18C
 XXC197   C197    XXC198   C198    XXC1AB   C1AB    XXC1BE   C1BE
 XXC1C1   C1C1    XXC1D9   C1D9    XXC1E9   C1E9    XXC1F0   C1F0
 XXC203   C203    XXC208   C208    XXC212   C212    XXC22C   C22C
 XXC232   C232    XXC23E   C23E    XXC244   C244    XXC256   C256
 XXC25B   C25B    XXC25E   C25E    XXC273   C273    XXC27B   C27B
 XXC28A   C28A    XXC29C   C29C    XXC2A0   C2A0    XXC2A8   C2A8
 XXC2AD   C2AD    XXC2B5   C2B5    XXC2B7   C2B7    XXC2BF   C2BF
 XXC2C0   C2C0    XXC2C6   C2C6    XXC2CB   C2CB    XXC2CC   C2CC
 XXC2E2   C2E2    XXC2EA   C2EA    XXC2F5   C2F5    XXC304   C304
 XXC30F   C30F    XXC313   C313    XXC317   C317    XXC32C   C32C
 XXC330   C330    XXC337   C337    XXC33B   C33B    XXC343   C343
 XXC352   C352    XXC35D   C35D    XXC361   C361    XXC374   C374
 XXC385   C385    XXC388   C388    XXC391   C391    XXC3A0   C3A0
 XXC3B3   C3B3    XXC3B6   C3B6    XXC3BB   C3BB    XXC3BE   C3BE
 XXC3C1   C3C1    XXC3D7   C3D7    XXC3E2   C3E2    XXC3F3   C3F3
 XXC409   C409    XXC40E   C40E    XXC411   C411    XXC438   C438
 XXC449   C449    XXC453   C453    XXC457   C457    XXC465   C465
 XXC46F   C46F    XXC479   C479    XXC47B   C47B    XXC49D   C49D
 XXC4A2   C4A2    XXC4A8   C4A8    XXC4C4   C4C4    XXC4CC   C4CC
 XXC4DA   C4DA    XXC4EC   C4EC    XXC4F1   C4F1    XXC4F7   C4F7
 XXC500   C500    XXC51B   C51B    XXC522   C522    XXC529   C529
 XXC52C   C52C    XXC532   C532    XXC547   C547    XXC56C   C56C
 XXC56F   C56F    XXC579   C579    XXC580   C580    XXC583   C583
 XXC589   C589    XXC590   C590    XXC592   C592    XXC597   C597
 XXC599   C599    XXC59C   C59C    XXC5AB   C5AB    XXC5C8   C5C8
 XXC5D6   C5D6    XXC607   C607    XXC632   C632    XXC634   C634
 XXC650   C650    XXC659   C659    XXC667   C667    XXC67C   C67C








SYMBOL TABLE

SYMBOL VALUE
 XXC688   C688    XXC692   C692    XXC694   C694    XXC696   C696
 XXC6AC   C6AC    XXC6C6   C6C6    XXC6D6   C6D6    XXC6D9   C6D9
 XXC702   C702    XXC714   C714    XXC718   C718    XXC72F   C72F
 XXC733   C733    XXC765   C765    XXC767   C767    XXC7B2   C7B2
 XXC7B5   C7B5    XXC7D1   C7D1    XXC7D4   C7D4    XXC7DC   C7DC
 XXC7DE   C7DE    XXC815   C815    XXC81D   C81D    XXC82E   C82E
 XXC831   C831    XXC836   C836    XXC83B   C83B    XXC840   C840
 XXC843   C843    XXC84E   C84E    XXC855   C855    XXC864   C864
 XXC86D   C86D    XXC874   C874    XXC877   C877    XXC879   C879
 XXC887   C887    XXC88B   C88B    XXC897   C897    XXC89A   C89A
 XXC89F   C89F    XXC8A6   C8A6    XXC8A9   C8A9    XXC8B0   C8B0
 XXC8BD   C8BD    XXC8C9   C8C9    XXC8D0   C8D0    XXC8DA   C8DA
 XXC8DB   C8DB    XXC8E5   C8E5    XXC8F2   C8F2    XXC8F3   C8F3
 XXC8FC   C8FC    XXC90C   C90C    XXC90D   C90D    XXC925   C925
 XXC92A   C92A    XXC92E   C92E    XXC93F   C93F    XXC950   C950
 XXC956   C956    XXC963   C963    XXC96D   C96D    XXC96E   C96E
 XXC974   C974    XXC979   C979    XXC97C   C97C    XXC9A8   C9A8
 XXC9AA   C9AA    XXC9D1   C9D1    XXC9E2   C9E2    XXC9FB   C9FB
 XXCA13   CA13    XXCA20   CA20    XXCA22   CA22    XXCA34   CA34
 XXCA38   CA38    XXCA3C   CA3C    XXCA4A   CA4A    XXCA4F   CA4F
 XXCA58   CA58    XXCA5F   CA5F    XXCA70   CA70    XXCA7A   CA7A
 XXCA83   CA83    XXCA8C   CA8C    XXCAA7   CAA7    XXCAAF   CAAF
 XXCAB5   CAB5    XXCABF   CABF    XXCAD1   CAD1    XXCAF3   CAF3
 XXCB0F   CB0F    XXCB15   CB15    XXCB20   CB20    XXCB35   CB35
 XXCB44   CB44    XXCB55   CB55    XXCB5C   CB5C    XXCB63   CB63
 XXCB6F   CB6F    XXCB91   CB91    XXCB98   CB98    XXCB9B   CB9B
 XXCBB3   CBB3    XXCBB9   CBB9    XXCBC7   CBC7    XXCBCA   CBCA
 XXCBD8   CBD8    XXCBE7   CBE7    XXCBF4   CBF4    XXCC05   CC05
 XXCC1B   CC1B    XXCC23   CC23    XXCC41   CC41    XXCC64   CC64
 XXCC6A   CC6A    XXCC6F   CC6F    XXCC75   CC75    XXCC9C   CC9C
 XXCC9E   CC9E    XXCCB3   CCB3    XXCCBE   CCBE    XXCCD6   CCD6
 XXCCE9   CCE9    XXCCF6   CCF6    XXCCF9   CCF9    XXCD04   CD04
 XXCD13   CD13    XXCD19   CD19    XXCD29   CD29    XXCD39   CD39
 XXCD3A   CD3A    XXCD45   CD45    XXCD49   CD49    XXCD4B   CD4B
 XXCD53   CD53    XXCD57   CD57    XXCD59   CD59    XXCD63   CD63
 XXCD75   CD75    XXCD7C   CD7C    XXCDA3   CDA3    XXCDAB   CDAB
 XXCDB9   CDB9    XXCDFD   CDFD    XXCE0A   CE0A    XXCE0B   CE0B
 XXCE0C   CE0C    XXCE0D   CE0D    XXCE0E   CE0E    XXCE0F   CE0F
 XXCE10   CE10    XXCE17   CE17    XXCE57   CE57    XXCE97   CE97
 XXCEAD   CEAD    XXCEC2   CEC2    XXCEC3   CEC3    XXCEEE   CEEE
 XXCEEF   CEEF    XXCEF0   CEF0    XXCEF1   CEF1    XXCEF2   CEF2
 XXCEF3   CEF3    XXCEF4   CEF4    XXCEF5   CEF5    XXCEF6   CEF6
 XXCEF7   CEF7    ZZC121   C121    ZZC125   C125    ZZC19B   C19B
 ZZC1C4   C1C4    ZZC241   C241    ZZC396   C396    ZZC399   C399
 ZZC420   C420    ZZC44C   C44C    ZZC6A2   C6A2    ZZC6A6   C6A6
 ZZC6AA   C6AA    ZZC76A   C76A    ZZC78D   C78D    ZZC981   C981
 ZZC9D7   C9D7    ZZC9EE   C9EE    ZZC9FE   C9FE    ZZCCBF   CCBF


END OF ASSEMBLY
CMONCNL.ASM......PAGE 0001

LINE# LOC   CODE        LINE































































MONITOR$C000......PAGE 0002

LINE# LOC   CODE        LINE


00003  0000              ;********************************
00004  0000              ;
00005  0000              ;        MONITOR$C000
00006  0000              ;   MONITOR$C000.C64 V072882
00007  0000              ;   MACHINE LANGUAGE MONITOR
00008  0000              ; (C) 1982 BY COMMODORE MACHINES
00009  0000              ;
00010  0000              ;  DOCUMENTED BY DENTON MARLOWE
00011  0000              ;
00012  0000              ;********************************
00013  0000              *=$C000                ;SYS49152
00014  C000              ;*********************************
00015  C000              ; MAIN BODY OF CODE
00016  C000              ;*********************************
00017  C000              .FIL   MONC.ASM
00018  C000              ;********************************
00019  C000              ;
00020  C000              ;        MONITOR$X000
00021  C000              ;   MONITOR$X000.C64 V072882
00022  C000              ;   MACHINE LANGUAGE MONITOR
00023  C000              ; (C) 1982 BY COMMODORE MACHINES
00024  C000              ;
00025  C000              ;     BASED ON MONITOR$C000
00026  C000              ;
00027  C000              ;  DOCUMENTED BY DENTON MARLOWE
00028  C000              ;
00029  C000              ;********************************
00030  C000              ; PAGE $0000 EQUATES
00031  C000              ;********************************
00032  C000              D6510=$0000
00033  C000              UNUSED=$0002
00034  C000              ADRAY1=$0003
00035  C000              ADRAY2=$0005
00036  C000              CHARAC=$0007
00037  C000              ENDCHR=$0008
00038  C000              DIMFLG=$000C
00039  C000              VALTYP=$000D
00040  C000              INTFLG=$000E
00041  C000              GARBFL=$000F
00042  C000              SUBFLG=$0010
00043  C000              INPFLG=$0011
00044  C000              TANSGN=$0012
00045  C000              CHANNL=$0013
00046  C000              LINNUM=$0014
00047  C000              TEMPST=$0019
00048  C000              INDEX=$0022
00049  C000              RESHO=$0026
00050  C000              TXTTAB=$002B
00051  C000              VARTAB=$002D
00052  C000              STREND=$0031
00053  C000              FRETOP=$0033
00054  C000              SAL=$00AC
00055  C000              CMPO=$00B0
00056  C000              CAS1=$00C0
00057  C000              STAL=$00C1






MONITOR$C000......PAGE 0003

LINE# LOC   CODE        LINE


00058  C000              MEMUSS=$00C3
00059  C000              NDX=$00C6
00060  C000              GDBLN=$00CE
00061  C000              BLNON=$00CF
00062  C000              PNT=$00D1
00063  C000              PNTR=$00D3
00064  C000              TBLX=$00D6
00065  C000              ROBUF=$00F9
00066  C000              ;********************************
00067  C000              ; PAGE $0100 EQUATES
00068  C000              ;********************************
00069  C000              STACK=$0100
00070  C000              ;********************************
00071  C000              ; PAGE $0200 EQUATES
00072  C000              ;********************************
00073  C000              KEYD=$0277
00074  C000              MEMSIZ=$0283
00075  C000              ;********************************
00076  C000              ; PAGE $0300 EQUATES
00077  C000              ;********************************
00078  C000              CINV=$0314
00079  C000              CBINV=$0316
00080  C000              NMINV=$0318            ;NMI VECTOR
00081  C000              ;********************************
00082  C000              ; PAGE $0400 EQUATES
00083  C000              ;********************************
00084  C000              VICSCN=$0400
00085  C000              ;********************************
00086  C000              ; EXTERNAL ADDRESS EQUATES
00087  C000              ;********************************
00088  C000              SETMSG=$FF90
00089  C000              CLRCHN=$FFCC
00090  C000              CHRIN=$FFCF
00091  C000              CHROUT=$FFD2
00092  C000              LOAD=$FFD5
00093  C000              SAVE=$FFD8
00094  C000              GETIN=$FFE4
00095  C000              ;********************************
00096  C000              ; ENTRY POINT
00097  C000              ; 
00098  C000              ; ?
00099  C000              ;********************************
00100  C000  4C 0C C0    ENTRY  JMP XXC00C
00101  C003              ;********************************
00102  C003  4C 3F C0    XXC003 JMP XXC03F
00103  C006              ;********************************
00104  C006  4C CF FF    MCHRIN JMP CHRIN
00105  C009              ;********************************
00106  C009  4C D2 FF    MCHROT JMP CHROUT
00107  C00C              ;********************************
00108  C00C  78          XXC00C SEI 
00109  C00D  AD 18 03           LDA NMINV
00110  C010  85 11              STA INPFLG
00111  C012  AD 19 03           LDA NMINV+1
00112  C015  85 12              STA TANSGN






MONITOR$C000......PAGE 0004

LINE# LOC   CODE        LINE


00113  C017  AD F2 CE           LDA XXCEF2
00114  C01A  AE F3 CE           LDX XXCEF3
00115  C01D  8D 16 03           STA CBINV
00116  C020  8E 17 03           STX CBINV+1
00117  C023  20 19 CD           JSR XXCD19
00118  C026  A9 00              LDA #$00
00119  C028  85 F9              STA ROBUF
00120  C02A  85 FA              STA ROBUF+1
00121  C02C  A9 80              LDA #$80
00122  C02E  20 90 FF           JSR SETMSG
00123  C031  A9 FF              LDA #$FF
00124  C033  85 1A              STA TEMPST+1
00125  C035  A9 00              LDA #$00
00126  C037  85 13              STA CHANNL
00127  C039  85 10              STA SUBFLG
00128  C03B  85 31              STA STREND
00129  C03D  58                 CLI 
00130  C03E  00                 BRK 
00131  C03F              ;********************************
00132  C03F              ; NMI SERVICE ROUTINE
00133  C03F              ;********************************
00134  C03F  20 F9 CC    XXC03F JSR XXCCF9
00135  C042  68                 PLA 
00136  C043  85 07              STA CHARAC
00137  C045  68                 PLA 
00138  C046  85 06              STA ADRAY2+1
00139  C048  68                 PLA 
00140  C049  85 05              STA ADRAY2
00141  C04B  68                 PLA 
00142  C04C  85 04              STA ADRAY1+1
00143  C04E  68                 PLA 
00144  C04F  85 03              STA ADRAY1
00145  C051  68                 PLA 
00146  C052  85 02              STA UNUSED
00147  C054  BA                 TSX 
00148  C055  86 08              STX ENDCHR
00149  C057  38                 SEC 
00150  C058  A5 03              LDA ADRAY1
00151  C05A  E9 02              SBC #$02
00152  C05C  85 03              STA ADRAY1
00153  C05E  A5 02              LDA UNUSED
00154  C060  E9 00              SBC #$00
00155  C062  85 02              STA UNUSED
00156  C064  20 19 CD           JSR XXCD19
00157  C067  A5 1A              LDA TEMPST+1
00158  C069  C9 FF              CMP #$FF
00159  C06B  F0 1D              BEQ XXC08A
00160  C06D  A6 14              LDX LINNUM
00161  C06F  86 C1              STX STAL
00162  C071  A6 15              LDX LINNUM+1
00163  C073  86 C2              STX STAL+1
00164  C075  A0 00              LDY #$00
00165  C077  20 AB CD           JSR XXCDAB
00166  C07A  A5 2D              LDA VARTAB
00167  C07C  D0 06              BNE XXC084






MONITOR$C000......PAGE 0005

LINE# LOC   CODE        LINE


00168  C07E  A5 2E              LDA VARTAB+1
00169  C080  D0 05              BNE XXC087
00170  C082  F0 06              BEQ XXC08A
00171  C084  4C 94 C6    XXC084 JMP XXC694
00172  C087              ;********************************
00173  C087  4C 92 C6    XXC087 JMP XXC692
00174  C08A              ;********************************
00175  C08A  20 7C C9    XXC08A JSR XXC97C
00176  C08D  A2 42              LDX #$42        ;'B'
00177  C08F  A9 2A       XXC08F LDA #$2A        ;'*'
00178  C091  20 64 C8           JSR XXC864
00179  C094  4C A8 C9           JMP XXC9A8
00180  C097              ;********************************
00181  C097  A9 3F       XXC097 LDA #$3F        ;'?'
00182  C099  20 09 C0           JSR MCHROT
00183  C09C  20 7C C9    XXC09C JSR XXC97C
00184  C09F  A9 2E              LDA #$2E        ;'.'
00185  C0A1  20 09 C0           JSR MCHROT
00186  C0A4  A9 00              LDA #$00
00187  C0A6  85 0F              STA GARBFL
00188  C0A8  85 29              STA RESHO+3
00189  C0AA  85 31              STA STREND
00190  C0AC  20 DB C8    XXC0AC JSR XXC8DB
00191  C0AF  C9 2E              CMP #$2E        ;'.'
00192  C0B1  F0 F9              BEQ XXC0AC
00193  C0B3  C9 20              CMP #$20        ;' '
00194  C0B5  F0 F5              BEQ XXC0AC
00195  C0B7  A2 14              LDX #$14
00196  C0B9  DD AD CE    XXC0B9 CMP XXCEAD,X
00197  C0BC  D0 12              BNE XXC0D0
00198  C0BE  85 1E              STA $1E
00199  C0C0  8A                 TXA 
00200  C0C1  0A                 ASL A
00201  C0C2  AA                 TAX 
00202  C0C3  BD C2 CE           LDA XXCEC2,X
00203  C0C6  85 C1              STA STAL
00204  C0C8  BD C3 CE           LDA XXCEC3,X
00205  C0CB  85 C2              STA STAL+1
00206  C0CD  6C C1 00           JMP ($00C1)
00207  C0D0              ;********************************
00208  C0D0  CA          XXC0D0 DEX 
00209  C0D1  10 E6              BPL XXC0B9
00210  C0D3  30 C2              BMI XXC097
00211  C0D5  A2 02       XXC0D5 LDX #$02
00212  C0D7  D0 02              BNE XXC0DB
00213  C0D9  A2 00       XXC0D9 LDX #$00
00214  C0DB  B4 C1       XXC0DB LDY STAL,X
00215  C0DD  D0 08              BNE XXC0E7
00216  C0DF  B4 C2              LDY STAL+1,X
00217  C0E1  D0 02              BNE XXC0E5
00218  C0E3  E6 29              INC RESHO+3
00219  C0E5  D6 C2       XXC0E5 DEC STAL+1,X
00220  C0E7  D6 C1       XXC0E7 DEC STAL,X
00221  C0E9  60                 RTS 
00222  C0EA              ;********************************






MONITOR$C000......PAGE 0006

LINE# LOC   CODE        LINE


00223  C0EA  A9 00       XXC0EA LDA #$00
00224  C0EC  85 23              STA INDEX+1
00225  C0EE  20 5B C2           JSR XXC25B
00226  C0F1  A2 02              LDX #$02
00227  C0F3  20 79 C9    XXC0F3 JSR XXC979
00228  C0F6  CA                 DEX 
00229  C0F7  D0 FA              BNE XXC0F3
00230  C0F9  60                 RTS 
00231  C0FA              ;********************************
00232  C0FA  A2 02       XXC0FA LDX #$02
00233  C0FC  B5 C0       XXC0FC LDA CAS1,X
00234  C0FE  48                 PHA 
00235  C0FF  B5 26              LDA RESHO,X
00236  C101  95 C0              STA CAS1,X
00237  C103  68                 PLA 
00238  C104  95 26              STA RESHO,X
00239  C106  CA                 DEX 
00240  C107  D0 F3              BNE XXC0FC
00241  C109  60                 RTS 
00242  C10A              ;********************************
00243  C10A  A5 27       XXC10A LDA RESHO+1
00244  C10C  A4 28              LDY RESHO+2
00245  C10E  4C 15 C1           JMP XXC115
00246  C111              ;********************************
00247  C111  A5 C3       XXC111 LDA MEMUSS
00248  C113  A4 C4              LDY MEMUSS+1
00249  C115  38          XXC115 SEC 
00250  C116  E5 C1              SBC STAL
00251  C118  85 26              STA RESHO
00252  C11A  98                 TYA 
00253  C11B  E5 C2              SBC STAL+1
00254  C11D  A8                 TAY 
00255  C11E  05 26              ORA RESHO
00256  C120  60                 RTS 
00257  C121              ;********************************
00258  C121              ; C
00259  C121              ;********************************
00260  C121  A9 00       ZZC121 LDA #$00
00261  C123  F0 02              BEQ XXC127
00262  C125              ;********************************
00263  C125              ; T
00264  C125              ;********************************
00265  C125  A9 01       ZZC125 LDA #$01
00266  C127  85 2A       XXC127 STA RESHO+4
00267  C129  20 1D C8           JSR XXC81D
00268  C12C  20 7C C9           JSR XXC97C
00269  C12F  20 11 C1           JSR XXC111
00270  C132  20 77 C8           JSR XXC877
00271  C135  90 1A              BCC XXC151
00272  C137  20 0A C1    XXC137 JSR XXC10A
00273  C13A  B0 03              BCS XXC13F
00274  C13C  4C C1 C1           JMP XXC1C1
00275  C13F              ;********************************
00276  C13F  20 77 C1    XXC13F JSR XXC177
00277  C142  E6 C3              INC MEMUSS






MONITOR$C000......PAGE 0007

LINE# LOC   CODE        LINE


00278  C144  D0 02              BNE XXC148
00279  C146  E6 C4              INC MEMUSS+1
00280  C148  20 63 C9    XXC148 JSR XXC963
00281  C14B  A4 29              LDY RESHO+3
00282  C14D  D0 49              BNE XXC198
00283  C14F  F0 E6              BEQ XXC137
00284  C151  20 0A C1    XXC151 JSR XXC10A
00285  C154  18                 CLC 
00286  C155  A5 26              LDA RESHO
00287  C157  65 C3              ADC MEMUSS
00288  C159  85 C3              STA MEMUSS
00289  C15B  98                 TYA 
00290  C15C  65 C4              ADC MEMUSS+1
00291  C15E  85 C4              STA MEMUSS+1
00292  C160  20 FA C0           JSR XXC0FA
00293  C163  20 77 C1    XXC163 JSR XXC177
00294  C166  20 0A C1           JSR XXC10A
00295  C169  B0 56              BCS XXC1C1
00296  C16B  20 D5 C0           JSR XXC0D5
00297  C16E  20 D9 C0           JSR XXC0D9
00298  C171  A4 29              LDY RESHO+3
00299  C173  D0 23              BNE XXC198
00300  C175  F0 EC              BEQ XXC163
00301  C177  A2 00       XXC177 LDX #$00
00302  C179  20 49 CD           JSR XXCD49
00303  C17C  48                 PHA 
00304  C17D  20 45 CD           JSR XXCD45
00305  C180  68                 PLA 
00306  C181  A4 2A              LDY RESHO+4
00307  C183  F0 03              BEQ XXC188
00308  C185  20 53 CD           JSR XXCD53
00309  C188  C1 0D       XXC188 CMP (VALTYP,X)
00310  C18A  F0 0B              BEQ XXC197
00311  C18C  20 4E C8    XXC18C JSR XXC84E
00312  C18F  20 79 C9           JSR XXC979
00313  C192  20 E5 C8           JSR XXC8E5
00314  C195  F0 01              BEQ XXC198
00315  C197  60          XXC197 RTS 
00316  C198              ;********************************
00317  C198  4C 9C C0    XXC198 JMP XXC09C
00318  C19B              ;********************************
00319  C19B              ; F
00320  C19B              ;********************************
00321  C19B  20 36 C8    ZZC19B JSR XXC836
00322  C19E  20 40 C8           JSR XXC840
00323  C1A1  20 DB C8           JSR XXC8DB
00324  C1A4  20 A9 C8           JSR XXC8A9
00325  C1A7  90 15              BCC XXC1BE
00326  C1A9  85 20              STA TEMPST+7
00327  C1AB  A6 29       XXC1AB LDX RESHO+3
00328  C1AD  D0 12              BNE XXC1C1
00329  C1AF  20 11 C1           JSR XXC111
00330  C1B2  90 0D              BCC XXC1C1
00331  C1B4  A5 20              LDA TEMPST+7
00332  C1B6  20 57 CD           JSR XXCD57






MONITOR$C000......PAGE 0008

LINE# LOC   CODE        LINE


00333  C1B9  20 63 C9           JSR XXC963
00334  C1BC  D0 ED              BNE XXC1AB
00335  C1BE  4C 97 C0    XXC1BE JMP XXC097
00336  C1C1              ;********************************
00337  C1C1  4C 9C C0    XXC1C1 JMP XXC09C
00338  C1C4              ;********************************
00339  C1C4              ; H
00340  C1C4              ;********************************
00341  C1C4  20 36 C8    ZZC1C4 JSR XXC836
00342  C1C7  20 40 C8           JSR XXC840
00343  C1CA  20 DB C8           JSR XXC8DB
00344  C1CD  A2 00              LDX #$00
00345  C1CF  20 DB C8           JSR XXC8DB
00346  C1D2  C9 27              CMP #$27        ;'''
00347  C1D4  D0 13              BNE XXC1E9
00348  C1D6  20 DB C8           JSR XXC8DB
00349  C1D9  95 33       XXC1D9 STA FRETOP,X
00350  C1DB  E8                 INX 
00351  C1DC  20 06 C0           JSR MCHRIN
00352  C1DF  C9 0D              CMP #$0D
00353  C1E1  F0 20              BEQ XXC203
00354  C1E3  E0 20              CPX #$20        ;' '
00355  C1E5  D0 F2              BNE XXC1D9
00356  C1E7  F0 1A              BEQ XXC203
00357  C1E9  86 2C       XXC1E9 STX TXTTAB+1
00358  C1EB  20 B0 C8           JSR XXC8B0
00359  C1EE  90 CE              BCC XXC1BE
00360  C1F0  95 33       XXC1F0 STA FRETOP,X
00361  C1F2  E8                 INX 
00362  C1F3  20 06 C0           JSR MCHRIN
00363  C1F6  C9 0D              CMP #$0D
00364  C1F8  F0 09              BEQ XXC203
00365  C1FA  20 A9 C8           JSR XXC8A9
00366  C1FD  90 BF              BCC XXC1BE
00367  C1FF  E0 20              CPX #$20        ;' '
00368  C201  D0 ED              BNE XXC1F0
00369  C203  86 1F       XXC203 STX $1F
00370  C205  20 7C C9           JSR XXC97C
00371  C208  A2 00       XXC208 LDX #$00
00372  C20A  A0 00              LDY #$00
00373  C20C  A5 C1              LDA STAL
00374  C20E  48                 PHA 
00375  C20F  A5 C2              LDA STAL+1
00376  C211  48                 PHA 
00377  C212  20 7C CD    XXC212 JSR XXCD7C
00378  C215  D5 33              CMP FRETOP,X
00379  C217  D0 13              BNE XXC22C
00380  C219  20 63 C9           JSR XXC963
00381  C21C  E8                 INX 
00382  C21D  E4 1F              CPX $1F
00383  C21F  D0 F1              BNE XXC212
00384  C221  68                 PLA 
00385  C222  85 C2              STA STAL+1
00386  C224  68                 PLA 
00387  C225  85 C1              STA STAL






MONITOR$C000......PAGE 0009

LINE# LOC   CODE        LINE


00388  C227  20 8C C1           JSR XXC18C
00389  C22A  D0 06              BNE XXC232
00390  C22C  68          XXC22C PLA 
00391  C22D  85 C2              STA STAL+1
00392  C22F  68                 PLA 
00393  C230  85 C1              STA STAL
00394  C232  20 63 C9    XXC232 JSR XXC963
00395  C235  A4 29              LDY RESHO+3
00396  C237  D0 05              BNE XXC23E
00397  C239  20 11 C1           JSR XXC111
00398  C23C  B0 CA              BCS XXC208
00399  C23E  4C 9C C0    XXC23E JMP XXC09C
00400  C241              ;********************************
00401  C241              ; D
00402  C241              ;********************************
00403  C241  20 38 C4    ZZC241 JSR XXC438
00404  C244  20 11 C1    XXC244 JSR XXC111
00405  C247  90 0D              BCC XXC256
00406  C249  A0 2C              LDY #$2C        ;','
00407  C24B  20 EA C0           JSR XXC0EA
00408  C24E  20 B5 C2           JSR XXC2B5
00409  C251  20 E5 C8           JSR XXC8E5
00410  C254  D0 EE              BNE XXC244
00411  C256  20 97 C5    XXC256 JSR XXC597
00412  C259  D0 E3              BNE XXC23E
00413  C25B  20 6E C9    XXC25B JSR XXC96E
00414  C25E  20 4E C8    XXC25E JSR XXC84E
00415  C261  20 79 C9           JSR XXC979
00416  C264  20 1B CC           JSR XXCC1B
00417  C267  48                 PHA 
00418  C268  20 CC C2           JSR XXC2CC
00419  C26B  68                 PLA 
00420  C26C  A2 03              LDX #$03
00421  C26E  20 52 C3           JSR XXC352
00422  C271  A2 06              LDX #$06
00423  C273  E0 03       XXC273 CPX #$03
00424  C275  D0 13              BNE XXC28A
00425  C277  A4 22              LDY INDEX
00426  C279  F0 0F              BEQ XXC28A
00427  C27B  A5 2B       XXC27B LDA TXTTAB
00428  C27D  C9 E8              CMP #$E8
00429  C27F  20 7C CD           JSR XXCD7C
00430  C282  B0 1C              BCS XXC2A0
00431  C284  20 AD C2           JSR XXC2AD
00432  C287  88                 DEY 
00433  C288  D0 F1              BNE XXC27B
00434  C28A  06 2B       XXC28A ASL TXTTAB
00435  C28C  90 0E              BCC XXC29C
00436  C28E  BD 0A CE           LDA XXCE0A,X
00437  C291  20 92 C5           JSR XXC592
00438  C294  BD 10 CE           LDA XXCE10,X
00439  C297  F0 03              BEQ XXC29C
00440  C299  20 92 C5           JSR XXC592
00441  C29C  CA          XXC29C DEX 
00442  C29D  D0 D4              BNE XXC273






MONITOR$C000......PAGE 0010

LINE# LOC   CODE        LINE


00443  C29F  60                 RTS 
00444  C2A0              ;********************************
00445  C2A0  20 C0 C2    XXC2A0 JSR XXC2C0
00446  C2A3  AA                 TAX 
00447  C2A4  E8                 INX 
00448  C2A5  D0 01              BNE XXC2A8
00449  C2A7  C8                 INY 
00450  C2A8  98          XXC2A8 TYA 
00451  C2A9  20 AD C2           JSR XXC2AD
00452  C2AC  8A                 TXA 
00453  C2AD  86 1F       XXC2AD STX $1F
00454  C2AF  20 55 C8           JSR XXC855
00455  C2B2  A6 1F              LDX $1F
00456  C2B4  60                 RTS 
00457  C2B5              ;********************************
00458  C2B5  A5 22       XXC2B5 LDA INDEX
00459  C2B7  20 BF C2    XXC2B7 JSR XXC2BF
00460  C2BA  85 C1              STA STAL
00461  C2BC  84 C2              STY STAL+1
00462  C2BE  60                 RTS 
00463  C2BF              ;********************************
00464  C2BF  38          XXC2BF SEC 
00465  C2C0  A4 C2       XXC2C0 LDY STAL+1
00466  C2C2  AA                 TAX 
00467  C2C3  10 01              BPL XXC2C6
00468  C2C5  88                 DEY 
00469  C2C6  65 C1       XXC2C6 ADC STAL
00470  C2C8  90 01              BCC XXC2CB
00471  C2CA  C8                 INY 
00472  C2CB  60          XXC2CB RTS 
00473  C2CC              ;********************************
00474  C2CC  A4 22       XXC2CC LDY INDEX
00475  C2CE  C8                 INY 
00476  C2CF  98                 TYA 
00477  C2D0  48                 PHA 
00478  C2D1  20 2A C9           JSR XXC92A
00479  C2D4  68                 PLA 
00480  C2D5  85 21              STA $21
00481  C2D7  38                 SEC 
00482  C2D8  A5 C1              LDA STAL
00483  C2DA  E5 21              SBC $21
00484  C2DC  85 C1              STA STAL
00485  C2DE  B0 02              BCS XXC2E2
00486  C2E0  C6 C2              DEC STAL+1
00487  C2E2  A5 22       XXC2E2 LDA INDEX
00488  C2E4  18                 CLC 
00489  C2E5  65 22              ADC INDEX
00490  C2E7  65 22              ADC INDEX
00491  C2E9  A8                 TAY 
00492  C2EA  A9 20       XXC2EA LDA #$20        ;' '
00493  C2EC  20 09 C0           JSR MCHROT
00494  C2EF  C8                 INY 
00495  C2F0  C0 07              CPY #$07
00496  C2F2  D0 F6              BNE XXC2EA
00497  C2F4  60                 RTS 






MONITOR$C000......PAGE 0011

LINE# LOC   CODE        LINE


00498  C2F5              ;********************************
00499  C2F5  A8          XXC2F5 TAY 
00500  C2F6  4A                 LSR A
00501  C2F7  90 0B              BCC XXC304
00502  C2F9  4A                 LSR A
00503  C2FA  B0 17              BCS XXC313
00504  C2FC  C9 22              CMP #$22        ;'"'
00505  C2FE  F0 13              BEQ XXC313
00506  C300  29 07              AND #$07
00507  C302  09 80              ORA #$80
00508  C304  4A          XXC304 LSR A
00509  C305  AA                 TAX 
00510  C306  BD B9 CD           LDA XXCDB9,X
00511  C309  B0 04              BCS XXC30F
00512  C30B  4A                 LSR A
00513  C30C  4A                 LSR A
00514  C30D  4A                 LSR A
00515  C30E  4A                 LSR A
00516  C30F  29 0F       XXC30F AND #$0F
00517  C311  D0 04              BNE XXC317
00518  C313  A0 80       XXC313 LDY #$80
00519  C315  A9 00              LDA #$00
00520  C317  AA          XXC317 TAX 
00521  C318  BD FD CD           LDA XXCDFD,X
00522  C31B  85 2B              STA TXTTAB
00523  C31D  29 03              AND #$03
00524  C31F  85 22              STA INDEX
00525  C321  98                 TYA 
00526  C322  29 8F              AND #$8F
00527  C324  AA                 TAX 
00528  C325  98                 TYA 
00529  C326  A0 03              LDY #$03
00530  C328  E0 8A              CPX #$8A
00531  C32A  F0 0B              BEQ XXC337
00532  C32C  4A          XXC32C LSR A
00533  C32D  90 08              BCC XXC337
00534  C32F  4A                 LSR A
00535  C330  4A          XXC330 LSR A
00536  C331  09 20              ORA #$20        ;' '
00537  C333  88                 DEY 
00538  C334  D0 FA              BNE XXC330
00539  C336  C8                 INY 
00540  C337  88          XXC337 DEY 
00541  C338  D0 F2              BNE XXC32C
00542  C33A  60                 RTS 
00543  C33B              ;********************************
00544  C33B  20 7C CD    XXC33B JSR XXCD7C
00545  C33E  20 AD C2           JSR XXC2AD
00546  C341  A2 01              LDX #$01
00547  C343  20 F3 C0    XXC343 JSR XXC0F3
00548  C346  C4 22              CPY INDEX
00549  C348  C8                 INY 
00550  C349  90 F0              BCC XXC33B
00551  C34B  A2 03              LDX #$03
00552  C34D  C0 03              CPY #$03






MONITOR$C000......PAGE 0012

LINE# LOC   CODE        LINE


00553  C34F  90 F2              BCC XXC343
00554  C351  60                 RTS 
00555  C352              ;********************************
00556  C352  A8          XXC352 TAY 
00557  C353  B9 17 CE           LDA XXCE17,Y
00558  C356  85 27              STA RESHO+1
00559  C358  B9 57 CE           LDA XXCE57,Y
00560  C35B  85 28              STA RESHO+2
00561  C35D  A9 00       XXC35D LDA #$00
00562  C35F  A0 05              LDY #$05
00563  C361  06 28       XXC361 ASL RESHO+2
00564  C363  26 27              ROL RESHO+1
00565  C365  2A                 ROL A
00566  C366  88                 DEY 
00567  C367  D0 F8              BNE XXC361
00568  C369  69 3F              ADC #$3F        ;'?'
00569  C36B  20 09 C0           JSR MCHROT
00570  C36E  CA                 DEX 
00571  C36F  D0 EC              BNE XXC35D
00572  C371  4C 79 C9           JMP XXC979
00573  C374              ;********************************
00574  C374  AD F5 CE    XXC374 LDA XXCEF5
00575  C377  48                 PHA 
00576  C378  AD F4 CE           LDA XXCEF4
00577  C37B  48                 PHA 
00578  C37C  A9 00              LDA #$00
00579  C37E  48                 PHA 
00580  C37F  48                 PHA 
00581  C380  48                 PHA 
00582  C381  48                 PHA 
00583  C382  6C 18 00           JMP ($0018)
00584  C385              ;********************************
00585  C385  85 20       XXC385 STA TEMPST+7
00586  C387  48                 PHA 
00587  C388  20 DB C8    XXC388 JSR XXC8DB
00588  C38B  20 3F C9           JSR XXC93F
00589  C38E  D0 F8              BNE XXC388
00590  C390  68                 PLA 
00591  C391  49 FF       XXC391 EOR #$FF
00592  C393  4C B7 C2           JMP XXC2B7
00593  C396              ;********************************
00594  C396              ; I
00595  C396              ;********************************
00596  C396  A9 40       ZZC396 LDA #$40        ;'@'
00597  C398              ;ERR-ASSEMBLER MAKES THIS ZERO PAGE.   
00598  C398                                     ;BIT $00A9
00599  C398  2C                 .BYTE $2C
00600  C399              ;********************************
00601  C399              ; M
00602  C399              ;********************************
00603  C399  A9          ZZC399 .BYTE $A9,$00
00603  C39A  00 
00604  C39B              ;ZZC399 LDA #$00
00605  C39B  85 20              STA TEMPST+7
00606  C39D  20 38 C4           JSR XXC438






MONITOR$C000......PAGE 0013

LINE# LOC   CODE        LINE


00607  C3A0  A6 29       XXC3A0 LDX RESHO+3
00608  C3A2  D0 17              BNE XXC3BB
00609  C3A4  20 11 C1           JSR XXC111
00610  C3A7  90 12              BCC XXC3BB
00611  C3A9  24 20              BIT TEMPST+7
00612  C3AB  50 06              BVC XXC3B3
00613  C3AD  20 BE C3           JSR XXC3BE
00614  C3B0  4C B6 C3           JMP XXC3B6
00615  C3B3              ;********************************
00616  C3B3              ;       JSR XXC40E
00617  C3B3  20 0E C4    XXC3B3 JSR XXC40E
00618  C3B6  20 E5 C8    XXC3B6 JSR XXC8E5
00619  C3B9  D0 E5              BNE XXC3A0
00620  C3BB  4C 56 C2    XXC3BB JMP XXC256
00621  C3BE              ;********************************
00622  C3BE  20 7C C9    XXC3BE JSR XXC97C
00623  C3C1  A2 2E       XXC3C1 LDX #$2E        ;'.'
00624  C3C3  A9 27              LDA #$27        ;'''
00625  C3C5  20 64 C8           JSR XXC864
00626  C3C8  20 79 C9           JSR XXC979
00627  C3CB  20 4E C8           JSR XXC84E
00628  C3CE  A9 12              LDA #$12
00629  C3D0  20 09 C0           JSR MCHROT
00630  C3D3  A0 08              LDY #$08
00631  C3D5  A2 00              LDX #$00
00632  C3D7  20 49 CD    XXC3D7 JSR XXCD49
00633  C3DA  29 7F              AND #$7F
00634  C3DC  C9 20              CMP #$20        ;' '
00635  C3DE  B0 02              BCS XXC3E2
00636  C3E0  A9 2E              LDA #$2E        ;'.'
00637  C3E2  20 09 C0    XXC3E2 JSR MCHROT
00638  C3E5  C9 22              CMP #$22        ;'"'
00639  C3E7  D0 0A              BNE XXC3F3
00640  C3E9  A9 14              LDA #$14
00641  C3EB  20 09 C0           JSR MCHROT
00642  C3EE  A9 22              LDA #$22        ;'"'
00643  C3F0  20 09 C0           JSR MCHROT
00644  C3F3  20 63 C9    XXC3F3 JSR XXC963
00645  C3F6  88                 DEY 
00646  C3F7  D0 DE              BNE XXC3D7
00647  C3F9  A9 92              LDA #$92
00648  C3FB  20 09 C0           JSR MCHROT
00649  C3FE  A5 C1              LDA STAL
00650  C400  38                 SEC 
00651  C401  E9 08              SBC #$08
00652  C403  85 C1              STA STAL
00653  C405  B0 02              BCS XXC409
00654  C407  C6 C2              DEC STAL+1
00655  C409  A9 08       XXC409 LDA #$08
00656  C40B  4C 2A C9           JMP XXC92A
00657  C40E              ;********************************
00658  C40E  20 7C C9    XXC40E JSR XXC97C
00659  C411  A2 2E       XXC411 LDX #$2E        ;'.'
00660  C413  A9 3A              LDA #$3A        ;':'
00661  C415  20 64 C8           JSR XXC864






MONITOR$C000......PAGE 0014

LINE# LOC   CODE        LINE


00662  C418  20 4E C8           JSR XXC84E
00663  C41B  A9 08              LDA #$08
00664  C41D  4C 2A C9           JMP XXC92A
00665  C420              ;********************************
00666  C420              ; :
00667  C420              ;********************************
00668  C420  20 36 C8    ZZC420 JSR XXC836
00669  C423  A9 08              LDA #$08
00670  C425  20 85 C3           JSR XXC385
00671  C428  20 97 C5           JSR XXC597
00672  C42B  20 0E C4           JSR XXC40E
00673  C42E  A9 3A              LDA #$3A        ;':'
00674  C430  8D 77 02           STA KEYD
00675  C433  A9 00              LDA #$00
00676  C435  4C 47 C5           JMP XXC547
00677  C438              ;********************************
00678  C438  20 36 C8    XXC438 JSR XXC836
00679  C43B  85 C3              STA MEMUSS
00680  C43D  86 C4              STX MEMUSS+1
00681  C43F  20 06 C0           JSR MCHRIN
00682  C442  C9 0D              CMP #$0D
00683  C444  F0 03              BEQ XXC449
00684  C446  20 3B C8           JSR XXC83B
00685  C449  4C 7C C9    XXC449 JMP XXC97C
00686  C44C              ;********************************
00687  C44C              ; A AND ,
00688  C44C              ;********************************
00689  C44C  20 87 C8    ZZC44C JSR XXC887
00690  C44F  85 C3              STA MEMUSS
00691  C451  86 C4              STX MEMUSS+1
00692  C453  A2 00       XXC453 LDX #$00
00693  C455  86 34              STX FRETOP+1
00694  C457  20 DB C8    XXC457 JSR XXC8DB
00695  C45A  C9 20              CMP #$20        ;' '
00696  C45C  F0 F5              BEQ XXC453
00697  C45E  95 24              STA $24,X
00698  C460  E8                 INX 
00699  C461  E0 03              CPX #$03
00700  C463  D0 F2              BNE XXC457
00701  C465  CA          XXC465 DEX 
00702  C466  30 11              BMI XXC479
00703  C468  B5 24              LDA $24,X
00704  C46A  38                 SEC 
00705  C46B  E9 3F              SBC #$3F        ;'?'
00706  C46D  A0 05              LDY #$05
00707  C46F  4A          XXC46F LSR A
00708  C470  66 34              ROR FRETOP+1
00709  C472  66 33              ROR FRETOP
00710  C474  88                 DEY 
00711  C475  D0 F8              BNE XXC46F
00712  C477  F0 EC              BEQ XXC465
00713  C479  A2 02       XXC479 LDX #$02
00714  C47B  20 06 C0    XXC47B JSR MCHRIN
00715  C47E  C9 0D              CMP #$0D
00716  C480  F0 20              BEQ XXC4A2






MONITOR$C000......PAGE 0015

LINE# LOC   CODE        LINE


00717  C482  C9 3A              CMP #$3A        ;':'
00718  C484  F0 1C              BEQ XXC4A2
00719  C486  C9 20              CMP #$20        ;' '
00720  C488  F0 F1              BEQ XXC47B
00721  C48A  20 89 C5           JSR XXC589
00722  C48D  B0 0E              BCS XXC49D
00723  C48F  20 BD C8           JSR XXC8BD
00724  C492  A4 C1              LDY STAL
00725  C494  84 C2              STY STAL+1
00726  C496  85 C1              STA STAL
00727  C498  A9 30              LDA #$30        ;'0'
00728  C49A  95 33              STA FRETOP,X
00729  C49C  E8                 INX 
00730  C49D  95 33       XXC49D STA FRETOP,X
00731  C49F  E8                 INX 
00732  C4A0  D0 D9              BNE XXC47B
00733  C4A2  86 27       XXC4A2 STX RESHO+1
00734  C4A4  A2 00              LDX #$00
00735  C4A6  86 29              STX RESHO+3
00736  C4A8  A2 00       XXC4A8 LDX #$00
00737  C4AA  86 20              STX TEMPST+7
00738  C4AC  A5 29              LDA RESHO+3
00739  C4AE  20 F5 C2           JSR XXC2F5
00740  C4B1  A6 2B              LDX TXTTAB
00741  C4B3  86 28              STX RESHO+2
00742  C4B5  AA                 TAX 
00743  C4B6  BD 57 CE           LDA XXCE57,X
00744  C4B9  20 6F C5           JSR XXC56F
00745  C4BC  BD 17 CE           LDA XXCE17,X
00746  C4BF  20 6F C5           JSR XXC56F
00747  C4C2  A2 06              LDX #$06
00748  C4C4  E0 03       XXC4C4 CPX #$03
00749  C4C6  D0 12              BNE XXC4DA
00750  C4C8  A4 22              LDY INDEX
00751  C4CA  F0 0E              BEQ XXC4DA
00752  C4CC  A5 2B       XXC4CC LDA TXTTAB
00753  C4CE  C9 E8              CMP #$E8
00754  C4D0  A9 30              LDA #$30        ;'0'
00755  C4D2  B0 1D              BCS XXC4F1
00756  C4D4  20 6C C5           JSR XXC56C
00757  C4D7  88                 DEY 
00758  C4D8  D0 F2              BNE XXC4CC
00759  C4DA  06 2B       XXC4DA ASL TXTTAB
00760  C4DC  90 0E              BCC XXC4EC
00761  C4DE  BD 0A CE           LDA XXCE0A,X
00762  C4E1  20 6F C5           JSR XXC56F
00763  C4E4  BD 10 CE           LDA XXCE10,X
00764  C4E7  F0 03              BEQ XXC4EC
00765  C4E9  20 6F C5           JSR XXC56F
00766  C4EC  CA          XXC4EC DEX 
00767  C4ED  D0 D5              BNE XXC4C4
00768  C4EF  F0 06              BEQ XXC4F7
00769  C4F1  20 6C C5    XXC4F1 JSR XXC56C
00770  C4F4  20 6C C5           JSR XXC56C
00771  C4F7  A5 27       XXC4F7 LDA RESHO+1






MONITOR$C000......PAGE 0016

LINE# LOC   CODE        LINE


00772  C4F9  C5 20              CMP TEMPST+7
00773  C4FB  F0 03              BEQ XXC500
00774  C4FD  4C 79 C5           JMP XXC579
00775  C500              ;********************************
00776  C500  20 77 C8    XXC500 JSR XXC877
00777  C503  A4 22              LDY INDEX
00778  C505  F0 2B              BEQ XXC532
00779  C507  A5 28              LDA RESHO+2
00780  C509  C9 9D              CMP #$9D
00781  C50B  D0 1C              BNE XXC529
00782  C50D  20 11 C1           JSR XXC111
00783  C510  90 09              BCC XXC51B
00784  C512  98                 TYA 
00785  C513  D0 6B              BNE XXC580
00786  C515  A6 26              LDX RESHO
00787  C517  30 67              BMI XXC580
00788  C519  10 07              BPL XXC522
00789  C51B  C8          XXC51B INY 
00790  C51C  D0 62              BNE XXC580
00791  C51E  A6 26              LDX RESHO
00792  C520  10 5E              BPL XXC580
00793  C522  CA          XXC522 DEX 
00794  C523  CA                 DEX 
00795  C524  8A                 TXA 
00796  C525  A4 22              LDY INDEX
00797  C527  D0 03              BNE XXC52C
00798  C529  B9 C2 00    XXC529 LDA $00C2,Y
00799  C52C  20 AB CD    XXC52C JSR XXCDAB
00800  C52F  88                 DEY 
00801  C530  D0 F7              BNE XXC529
00802  C532  A5 29       XXC532 LDA RESHO+3
00803  C534  20 AB CD           JSR XXCDAB
00804  C537  A0 41              LDY #$41        ;'A'
00805  C539  8C 77 02           STY KEYD
00806  C53C  20 97 C5           JSR XXC597
00807  C53F  20 EA C0           JSR XXC0EA
00808  C542  20 B5 C2           JSR XXC2B5
00809  C545  A9 20              LDA #$20        ;' '
00810  C547  8D 78 02    XXC547 STA KEYD+1
00811  C54A  A5 C2              LDA STAL+1
00812  C54C  20 9C C5           JSR XXC59C
00813  C54F  8E 79 02           STX KEYD+2
00814  C552  8D 7A 02           STA KEYD+3
00815  C555  A5 C1              LDA STAL
00816  C557  20 9C C5           JSR XXC59C
00817  C55A  8E 7B 02           STX KEYD+4
00818  C55D  8D 7C 02           STA KEYD+5
00819  C560  A9 20              LDA #$20        ;' '
00820  C562  8D 7D 02           STA KEYD+6
00821  C565  A9 07              LDA #$07
00822  C567  85 C6              STA NDX
00823  C569  4C 9C C0           JMP XXC09C
00824  C56C              ;********************************
00825  C56C  20 6F C5    XXC56C JSR XXC56F
00826  C56F  86 1F       XXC56F STX $1F






MONITOR$C000......PAGE 0017

LINE# LOC   CODE        LINE


00827  C571  A6 20              LDX TEMPST+7
00828  C573  D5 33              CMP FRETOP,X
00829  C575  F0 0C              BEQ XXC583
00830  C577  68                 PLA 
00831  C578  68                 PLA 
00832  C579  E6 29       XXC579 INC RESHO+3
00833  C57B  F0 03              BEQ XXC580
00834  C57D  4C A8 C4           JMP XXC4A8
00835  C580              ;********************************
00836  C580  4C 97 C0    XXC580 JMP XXC097
00837  C583              ;********************************
00838  C583  E8          XXC583 INX 
00839  C584  86 20              STX TEMPST+7
00840  C586  A6 1F              LDX $1F
00841  C588  60                 RTS 
00842  C589              ;********************************
00843  C589  C9 30       XXC589 CMP #$30        ;'0'
00844  C58B  90 03              BCC XXC590
00845  C58D  C9 47              CMP #$47        ;'G'
00846  C58F  60                 RTS 
00847  C590              ;********************************
00848  C590  38          XXC590 SEC 
00849  C591  60                 RTS 
00850  C592              ;********************************
00851  C592  C5 23       XXC592 CMP INDEX+1
00852  C594  D0 03              BNE XXC599
00853  C596  60                 RTS 
00854  C597              ;********************************
00855  C597  A9 91       XXC597 LDA #$91
00856  C599  4C 09 C0    XXC599 JMP MCHROT
00857  C59C              ;********************************
00858  C59C              ;
00859  C59C              ;********************************
00860  C59C  48          XXC59C PHA 
00861  C59D  4A                 LSR A
00862  C59E  4A                 LSR A
00863  C59F  4A                 LSR A
00864  C5A0  4A                 LSR A
00865  C5A1  20 6D C8           JSR XXC86D
00866  C5A4  AA                 TAX 
00867  C5A5  68                 PLA 
00868  C5A6  29 0F              AND #$0F
00869  C5A8  4C 6D C8           JMP XXC86D
00870  C5AB              ;********************************
00871  C5AB              ;
00872  C5AB              ;********************************
00873  C5AB  85 05       XXC5AB STA ADRAY2
00874  C5AD  08                 PHP 
00875  C5AE  68                 PLA 
00876  C5AF  29 EF              AND #$EF
00877  C5B1  85 04              STA ADRAY1+1
00878  C5B3  86 06              STX ADRAY2+1
00879  C5B5  84 07              STY CHARAC
00880  C5B7  68                 PLA 
00881  C5B8  18                 CLC 






MONITOR$C000......PAGE 0018

LINE# LOC   CODE        LINE


00882  C5B9  69 01              ADC #$01
00883  C5BB  85 03              STA ADRAY1
00884  C5BD  68                 PLA 
00885  C5BE  69 00              ADC #$00
00886  C5C0  85 02              STA UNUSED
00887  C5C2  A9 80              LDA #$80
00888  C5C4  85 10              STA SUBFLG
00889  C5C6  D0 3F              BNE XXC607
00890  C5C8  48          XXC5C8 PHA 
00891  C5C9  8A                 TXA 
00892  C5CA  48                 PHA 
00893  C5CB  98                 TYA 
00894  C5CC  48                 PHA 
00895  C5CD  BA                 TSX 
00896  C5CE  BD 04 01           LDA STACK+4,X
00897  C5D1  29 04              AND #$04
00898  C5D3  D0 01              BNE XXC5D6
00899  C5D5  58                 CLI 
00900  C5D6  A0 32       XXC5D6 LDY #$32        ;'2'
00901  C5D8  B1 F9              LDA (ROBUF),Y
00902  C5DA  8D AA AA           STA $AAAA
00903  C5DD  EA                 NOP 
00904  C5DE  78                 SEI 
00905  C5DF  20 F9 CC           JSR XXCCF9
00906  C5E2  68                 PLA 
00907  C5E3  85 07              STA CHARAC
00908  C5E5  68                 PLA 
00909  C5E6  85 06              STA ADRAY2+1
00910  C5E8  68                 PLA 
00911  C5E9  85 05              STA ADRAY2
00912  C5EB  D8                 CLD 
00913  C5EC  68                 PLA 
00914  C5ED  85 04              STA ADRAY1+1
00915  C5EF  68                 PLA 
00916  C5F0  85 03              STA ADRAY1
00917  C5F2  68                 PLA 
00918  C5F3  85 02              STA UNUSED
00919  C5F5              ;********************************
00920  C5F5              ;.END
00921  C5F5              ;*=$C5F5
00922  C5F5              ;********************************
00923  C5F5  A5 11              LDA INPFLG
00924  C5F7  8D 18 03           STA NMINV
00925  C5FA  A5 12              LDA TANSGN
00926  C5FC  8D 19 03           STA NMINV+1
00927  C5FF  20 19 CD           JSR XXCD19
00928  C602  A9 20              LDA #$20        ;' '
00929  C604  8D AA AA           STA $AAAA
00930  C607  BA          XXC607 TSX 
00931  C608  86 08              STX ENDCHR
00932  C60A  AD AA AA           LDA $AAAA
00933  C60D  8D AA AA           STA $AAAA
00934  C610  58                 CLI 
00935  C611  24 13              BIT CHANNL
00936  C613  10 1F              BPL XXC634






MONITOR$C000......PAGE 0019

LINE# LOC   CODE        LINE


00937  C615  A5 14              LDA LINNUM
00938  C617  85 C1              STA STAL
00939  C619  A5 15              LDA LINNUM+1
00940  C61B  85 C2              STA STAL+1
00941  C61D  A0 00              LDY #$00
00942  C61F  20 7C CD           JSR XXCD7C
00943  C622  85 1A              STA TEMPST+1
00944  C624  A9 00              LDA #$00
00945  C626  20 AB CD           JSR XXCDAB
00946  C629  24 13              BIT CHANNL
00947  C62B  50 05              BVC XXC632
00948  C62D  85 13              STA CHANNL
00949  C62F  4C D9 C6           JMP XXC6D9
00950  C632              ;********************************
00951  C632  85 13       XXC632 STA CHANNL
00952  C634  24 10       XXC634 BIT SUBFLG
00953  C636  50 18              BVC XXC650
00954  C638  A5 02              LDA UNUSED
00955  C63A  C5 15              CMP LINNUM+1
00956  C63C  D0 58              BNE XXC696
00957  C63E  A5 03              LDA ADRAY1
00958  C640  C5 14              CMP LINNUM
00959  C642  D0 52              BNE XXC696
00960  C644  A5 2D              LDA VARTAB
00961  C646  D0 4C              BNE XXC694
00962  C648  A5 2E              LDA VARTAB+1
00963  C64A  D0 46              BNE XXC692
00964  C64C  A9 80              LDA #$80
00965  C64E  85 10              STA SUBFLG
00966  C650                                     ;BMI XXC667
00967  C650  30 15       XXC650 BMI XXC667
00968  C652  46 10              LSR SUBFLG
00969  C654  B0 03              BCS XXC659
00970  C656  4C 8A C0           JMP XXC08A
00971  C659              ;********************************
00972  C659  A6 08       XXC659 LDX ENDCHR
00973  C65B  9A                 TXS 
00974  C65C  AD F7 CE           LDA XXCEF7
00975  C65F  48                 PHA 
00976  C660  AD F6 CE           LDA XXCEF6
00977  C663  48                 PHA 
00978  C664  4C 33 C7           JMP XXC733
00979  C667              ;********************************
00980  C667  20 7C C9    XXC667 JSR XXC97C
00981  C66A  A5 03              LDA ADRAY1
00982  C66C  A6 02              LDX UNUSED
00983  C66E  85 C1              STA STAL
00984  C670  86 C2              STX STAL+1
00985  C672  20 79 C9           JSR XXC979
00986  C675  A9 24              LDA #$24        ;'$'
00987  C677  85 23              STA INDEX+1
00988  C679  20 5E C2           JSR XXC25E
00989  C67C  20 E4 FF    XXC67C JSR GETIN
00990  C67F  F0 FB              BEQ XXC67C
00991  C681  C9 03              CMP #$03






MONITOR$C000......PAGE 0020

LINE# LOC   CODE        LINE


00992  C683  D0 03              BNE XXC688
00993  C685  4C 9C C0           JMP XXC09C
00994  C688              ;********************************
00995  C688  C9 4A       XXC688 CMP #$4A        ;'J'
00996  C68A  D0 4D              BNE XXC6D9
00997  C68C  A9 01              LDA #$01
00998  C68E  85 10              STA SUBFLG
00999  C690  D0 47              BNE XXC6D9
01000  C692  C6 2E       XXC692 DEC VARTAB+1
01001  C694  C6 2D       XXC694 DEC VARTAB
01002  C696  AD 00 DC    XXC696 LDA $DC00
01003  C699  C9 FA              CMP #$FA
01004  C69B  D0 3C              BNE XXC6D9
01005  C69D  A2 53              LDX #$53        ;'S'
01006  C69F  4C 8F C0           JMP XXC08F
01007  C6A2              ;********************************
01008  C6A2              ; G
01009  C6A2              ;********************************
01010  C6A2  A9 00       ZZC6A2 LDA #$00
01011  C6A4  F0 06              BEQ XXC6AC
01012  C6A6              ;********************************
01013  C6A6              ; Q
01014  C6A6              ;********************************
01015  C6A6  A9 40       ZZC6A6 LDA #$40        ;'@'
01016  C6A8  D0 02              BNE XXC6AC
01017  C6AA              ;********************************
01018  C6AA              ; W
01019  C6AA              ;********************************
01020  C6AA  A9 80       ZZC6AA LDA #$80
01021  C6AC  85 10       XXC6AC STA SUBFLG
01022  C6AE  85 31              STA STREND
01023  C6B0  A4 16              LDY $16
01024  C6B2  84 2D              STY VARTAB
01025  C6B4  A4 17              LDY $17
01026  C6B6  84 2E              STY VARTAB+1
01027  C6B8  20 06 C0           JSR MCHRIN
01028  C6BB  C9 0D              CMP #$0D
01029  C6BD  F0 17              BEQ XXC6D6
01030  C6BF  C9 20              CMP #$20        ;' '
01031  C6C1  F0 03              BEQ XXC6C6
01032  C6C3  4C 67 C7           JMP XXC767
01033  C6C6              ;********************************
01034  C6C6  20 9A C8    XXC6C6 JSR XXC89A
01035  C6C9  20 25 C9           JSR XXC925
01036  C6CC  20 06 C0           JSR MCHRIN
01037  C6CF  C9 0D              CMP #$0D
01038  C6D1  F0 03              BEQ XXC6D6
01039  C6D3  4C 67 C7           JMP XXC767
01040  C6D6              ;********************************
01041  C6D6  20 7C C9    XXC6D6 JSR XXC97C
01042  C6D9  A5 1A       XXC6D9 LDA TEMPST+1
01043  C6DB  C9 FF              CMP #$FF
01044  C6DD  F0 35              BEQ XXC714
01045  C6DF  A6 14              LDX LINNUM
01046  C6E1  E4 03              CPX ADRAY1






MONITOR$C000......PAGE 0021

LINE# LOC   CODE        LINE


01047  C6E3  D0 1D              BNE XXC702
01048  C6E5  A4 15              LDY LINNUM+1
01049  C6E7  C4 02              CPY UNUSED
01050  C6E9  D0 17              BNE XXC702
01051  C6EB  84 C2              STY STAL+1
01052  C6ED  86 C1              STX STAL
01053  C6EF  A6 10              LDX SUBFLG
01054  C6F1  D0 25              BNE XXC718
01055  C6F3  A0 00              LDY #$00
01056  C6F5  20 AB CD           JSR XXCDAB
01057  C6F8  A9 80              LDA #$80
01058  C6FA  85 13              STA CHANNL
01059  C6FC  A9 C0              LDA #$C0
01060  C6FE  85 13              STA CHANNL
01061  C700  D0 16              BNE XXC718
01062  C702  A5 10       XXC702 LDA SUBFLG
01063  C704  D0 12              BNE XXC718
01064  C706  86 C1              STX STAL
01065  C708  A4 15              LDY LINNUM+1    ;LDY GARBFL
01066  C70A  84 C2              STY STAL+1
01067  C70C  A0 00              LDY #$00
01068  C70E  A9 00              LDA #$00
01069  C710  A8                 TAY 
01070  C711  20 AB CD           JSR XXCDAB
01071  C714  A5 10       XXC714 LDA SUBFLG
01072  C716  F0 17              BEQ XXC72F
01073  C718  78          XXC718 SEI 
01074  C719  A9 A0              LDA #$A0
01075  C71B  8D AA AA           STA $AAAA
01076  C71E  A9 00              LDA #$00
01077  C720  8D AA AA           STA $AAAA
01078  C723  AD F1 CE           LDA XXCEF1
01079  C726  8D 19 03           STA NMINV+1
01080  C729  AD F0 CE           LDA XXCEF0
01081  C72C  8D 18 03           STA NMINV
01082  C72F  78          XXC72F SEI 
01083  C730  A6 08              LDX ENDCHR
01084  C732  9A                 TXS 
01085  C733  A5 02       XXC733 LDA UNUSED
01086  C735  48                 PHA 
01087  C736  A5 03              LDA ADRAY1
01088  C738  48                 PHA 
01089  C739  A5 04              LDA ADRAY1+1
01090  C73B  48                 PHA 
01091  C73C  A5 05              LDA ADRAY2
01092  C73E  48                 PHA 
01093  C73F  A6 06              LDX ADRAY2+1
01094  C741  A4 07              LDY CHARAC
01095  C743  A5 10              LDA SUBFLG
01096  C745  05 13              ORA CHANNL
01097  C747  08                 PHP 
01098  C748  AD AA AA           LDA $AAAA
01099  C74B  85 32              STA $32
01100  C74D  20 3A CD           JSR XXCD3A
01101  C750  20 F9 CC           JSR XXCCF9






MONITOR$C000......PAGE 0022

LINE# LOC   CODE        LINE


01102  C753  28                 PLP 
01103  C754  F0 0F              BEQ XXC765
01104  C756  A9 7F              LDA #$7F
01105  C758  8D AA AA           STA $AAAA
01106  C75B  A9 09              LDA #$09
01107  C75D  8D 06 DD           STA $DD06
01108  C760  A9 00              LDA #$00
01109  C762  8D 07 DD           STA $DD07
01110  C765  68          XXC765 PLA 
01111  C766  40                 RTI 
01112  C767              ;********************************
01113  C767  4C 97 C0    XXC767 JMP XXC097
01114  C76A              ;********************************
01115  C76A              ; B
01116  C76A              ;********************************
01117  C76A  20 87 C8    ZZC76A JSR XXC887
01118  C76D  85 C1              STA STAL
01119  C76F  86 C2              STX STAL+1
01120  C771  85 14              STA LINNUM
01121  C773  86 15              STX LINNUM+1
01122  C775  A0 00              LDY #$00
01123  C777  20 7C CD           JSR XXCD7C
01124  C77A  85 1A              STA TEMPST+1
01125  C77C  98                 TYA 
01126  C77D  A9 00              LDA #$00
01127  C77F  85 16              STA $16
01128  C781  85 17              STA $17
01129  C783  20 97 C8           JSR XXC897
01130  C786  85 16              STA $16
01131  C788  86 17              STX $17
01132  C78A  4C 9C C0           JMP XXC09C
01133  C78D              ;********************************
01134  C78D              ; N
01135  C78D              ;********************************
01136  C78D  20 1D C8    ZZC78D JSR XXC81D
01137  C790  85 2F              STA $2F
01138  C792  86 30              STX $30
01139  C794  20 97 C8           JSR XXC897
01140  C797  85 24              STA $24
01141  C799  86 25              STX $25
01142  C79B  20 97 C8           JSR XXC897
01143  C79E  85 AE              STA SAL+2
01144  C7A0  86 AF              STX SAL+3
01145  C7A2  20 06 C0           JSR MCHRIN
01146  C7A5  C9 0D              CMP #$0D
01147  C7A7  F0 09              BEQ XXC7B2
01148  C7A9  20 06 C0           JSR MCHRIN
01149  C7AC  C9 57              CMP #$57        ;'W'
01150  C7AE  D0 02              BNE XXC7B2
01151  C7B0  E6 23              INC INDEX+1
01152  C7B2  20 77 C8    XXC7B2 JSR XXC877
01153  C7B5  A6 29       XXC7B5 LDX RESHO+3
01154  C7B7  D0 18              BNE XXC7D1
01155  C7B9  20 0A C1           JSR XXC10A
01156  C7BC  90 13              BCC XXC7D1






MONITOR$C000......PAGE 0023

LINE# LOC   CODE        LINE


01157  C7BE  A4 23              LDY INDEX+1
01158  C7C0  D0 1A              BNE XXC7DC
01159  C7C2  20 7C CD           JSR XXCD7C
01160  C7C5  20 F5 C2           JSR XXC2F5
01161  C7C8  AA                 TAX 
01162  C7C9  BD 17 CE           LDA XXCE17,X
01163  C7CC  D0 06              BNE XXC7D4
01164  C7CE  20 EA C0           JSR XXC0EA
01165  C7D1  4C 9C C0    XXC7D1 JMP XXC09C
01166  C7D4              ;********************************
01167  C7D4  A4 22       XXC7D4 LDY INDEX
01168  C7D6  C0 02              CPY #$02
01169  C7D8  D0 3B              BNE XXC815
01170  C7DA  F0 02              BEQ XXC7DE
01171  C7DC  84 22       XXC7DC STY INDEX
01172  C7DE  88          XXC7DE DEY 
01173  C7DF  38                 SEC 
01174  C7E0  20 7C CD           JSR XXCD7C
01175  C7E3  AA                 TAX 
01176  C7E4  E5 24              SBC $24
01177  C7E6  C8                 INY 
01178  C7E7  20 7C CD           JSR XXCD7C
01179  C7EA  E5 25              SBC $25
01180  C7EC  90 27              BCC XXC815
01181  C7EE  88                 DEY 
01182  C7EF  20 7C CD           JSR XXCD7C
01183  C7F2  85 0B              STA $0B
01184  C7F4  A5 AE              LDA SAL+2
01185  C7F6  E5 0B              SBC $0B
01186  C7F8  C8                 INY 
01187  C7F9  20 7C CD           JSR XXCD7C
01188  C7FC  85 0B              STA $0B
01189  C7FE  A5 AF              LDA SAL+3
01190  C800  E5 0B              SBC $0B
01191  C802  90 11              BCC XXC815
01192  C804  88                 DEY 
01193  C805  18                 CLC 
01194  C806  8A                 TXA 
01195  C807  65 2F              ADC $2F
01196  C809  20 AB CD           JSR XXCDAB
01197  C80C  C8                 INY 
01198  C80D  20 7C CD           JSR XXCD7C
01199  C810  65 30              ADC $30
01200  C812  20 AB CD           JSR XXCDAB
01201  C815  20 63 C9    XXC815 JSR XXC963
01202  C818  88                 DEY 
01203  C819  10 FA              BPL XXC815
01204  C81B  30 98              BMI XXC7B5
01205  C81D  20 87 C8    XXC81D JSR XXC887
01206  C820  85 C3              STA MEMUSS
01207  C822  86 C4              STX MEMUSS+1
01208  C824  20 97 C8           JSR XXC897
01209  C827  85 27              STA RESHO+1
01210  C829  86 28              STX RESHO+2
01211  C82B  20 DB C8           JSR XXC8DB






MONITOR$C000......PAGE 0024

LINE# LOC   CODE        LINE


01212  C82E  20 9A C8    XXC82E JSR XXC89A
01213  C831  85 C1       XXC831 STA STAL
01214  C833  86 C2              STX STAL+1
01215  C835  60                 RTS 
01216  C836              ;********************************
01217  C836  20 87 C8    XXC836 JSR XXC887
01218  C839  B0 F6              BCS XXC831
01219  C83B  20 9A C8    XXC83B JSR XXC89A
01220  C83E  B0 03              BCS XXC843
01221  C840  20 97 C8    XXC840 JSR XXC897
01222  C843  85 C3       XXC843 STA MEMUSS
01223  C845  86 C4              STX MEMUSS+1
01224  C847  60                 RTS 
01225  C848              ;********************************
01226  C848  20 FA C0           JSR XXC0FA
01227  C84B  4C 97 C8           JMP XXC897
01228  C84E              ;********************************
01229  C84E  A5 C2       XXC84E LDA STAL+1
01230  C850  20 55 C8           JSR XXC855
01231  C853  A5 C1              LDA STAL
01232  C855  48          XXC855 PHA 
01233  C856  4A                 LSR A
01234  C857  4A                 LSR A
01235  C858  4A                 LSR A
01236  C859  4A                 LSR A
01237  C85A  20 6D C8           JSR XXC86D
01238  C85D  AA                 TAX 
01239  C85E  68                 PLA 
01240  C85F  29 0F              AND #$0F
01241  C861  20 6D C8           JSR XXC86D
01242  C864  48          XXC864 PHA 
01243  C865  8A                 TXA 
01244  C866  20 09 C0           JSR MCHROT
01245  C869  68                 PLA 
01246  C86A  4C 09 C0           JMP MCHROT
01247  C86D              ;********************************
01248  C86D  18          XXC86D CLC 
01249  C86E  69 F6              ADC #$F6
01250  C870  90 02              BCC XXC874
01251  C872  69 06              ADC #$06
01252  C874  69 3A       XXC874 ADC #$3A        ;':'
01253  C876  60                 RTS 
01254  C877              ;********************************
01255  C877  A2 02       XXC877 LDX #$02
01256  C879  B5 C0       XXC879 LDA CAS1,X
01257  C87B  48                 PHA 
01258  C87C  B5 C2              LDA STAL+1,X
01259  C87E  95 C0              STA CAS1,X
01260  C880  68                 PLA 
01261  C881  95 C2              STA STAL+1,X
01262  C883  CA                 DEX 
01263  C884  D0 F3              BNE XXC879
01264  C886  60                 RTS 
01265  C887              ;********************************
01266  C887  A9 00       XXC887 LDA #$00






MONITOR$C000......PAGE 0025

LINE# LOC   CODE        LINE


01267  C889  85 2C              STA TXTTAB+1
01268  C88B  20 DB C8    XXC88B JSR XXC8DB
01269  C88E  C9 20              CMP #$20        ;' '
01270  C890  F0 F9              BEQ XXC88B
01271  C892  20 BD C8           JSR XXC8BD
01272  C895  B0 08              BCS XXC89F
01273  C897  20 DB C8    XXC897 JSR XXC8DB
01274  C89A  20 A9 C8    XXC89A JSR XXC8A9
01275  C89D  90 07              BCC XXC8A6
01276  C89F  AA          XXC89F TAX 
01277  C8A0  20 A9 C8           JSR XXC8A9
01278  C8A3  90 01              BCC XXC8A6
01279  C8A5  60                 RTS 
01280  C8A6              ;********************************
01281  C8A6  4C 97 C0    XXC8A6 JMP XXC097
01282  C8A9              ;********************************
01283  C8A9  A9 00       XXC8A9 LDA #$00
01284  C8AB  85 2C              STA TXTTAB+1
01285  C8AD  20 DB C8           JSR XXC8DB
01286  C8B0  C9 20       XXC8B0 CMP #$20        ;' '
01287  C8B2  D0 09              BNE XXC8BD
01288  C8B4  20 DB C8           JSR XXC8DB
01289  C8B7  C9 20              CMP #$20        ;' '
01290  C8B9  D0 0E              BNE XXC8C9
01291  C8BB  18                 CLC 
01292  C8BC  60                 RTS 
01293  C8BD              ;********************************
01294  C8BD  20 D0 C8    XXC8BD JSR XXC8D0
01295  C8C0  0A                 ASL A
01296  C8C1  0A                 ASL A
01297  C8C2  0A                 ASL A
01298  C8C3  0A                 ASL A
01299  C8C4  85 2C              STA TXTTAB+1
01300  C8C6  20 DB C8           JSR XXC8DB
01301  C8C9  20 D0 C8    XXC8C9 JSR XXC8D0
01302  C8CC  05 2C              ORA TXTTAB+1
01303  C8CE  38                 SEC 
01304  C8CF  60                 RTS 
01305  C8D0              ;********************************
01306  C8D0  C9 3A       XXC8D0 CMP #$3A        ;':'
01307  C8D2  08                 PHP 
01308  C8D3  29 0F              AND #$0F
01309  C8D5  28                 PLP 
01310  C8D6  90 02              BCC XXC8DA
01311  C8D8  69 08              ADC #$08
01312  C8DA  60          XXC8DA RTS 
01313  C8DB              ;********************************
01314  C8DB  20 06 C0    XXC8DB JSR MCHRIN
01315  C8DE  C9 0D              CMP #$0D
01316  C8E0  D0 F8              BNE XXC8DA
01317  C8E2  4C 9C C0           JMP XXC09C
01318  C8E5              ;********************************
01319  C8E5  A5 91       XXC8E5 LDA $91
01320  C8E7  C9 FE              CMP #$FE
01321  C8E9  D0 07              BNE XXC8F2






MONITOR$C000......PAGE 0026

LINE# LOC   CODE        LINE


01322  C8EB  08                 PHP 
01323  C8EC  20 CC FF           JSR CLRCHN
01324  C8EF  85 C6              STA NDX
01325  C8F1  28                 PLP 
01326  C8F2  60          XXC8F2 RTS 
01327  C8F3              ;********************************
01328  C8F3  20 FC C8    XXC8F3 JSR XXC8FC
01329  C8F6  2C AA AA           BIT $AAAA
01330  C8F9  30 F8              BMI XXC8F3
01331  C8FB  60                 RTS 
01332  C8FC              ;********************************
01333  C8FC  20 E5 C8    XXC8FC JSR XXC8E5
01334  C8FF  D0 0B              BNE XXC90C
01335  C901  20 0D C9           JSR XXC90D
01336  C904  A9 03              LDA #$03
01337  C906  85 9A              STA $9A
01338  C908  A9 00              LDA #$00
01339  C90A  85 99              STA $99
01340  C90C  60          XXC90C RTS 
01341  C90D              ;********************************
01342  C90D  08          XXC90D PHP 
01343  C90E  78                 SEI 
01344  C90F  AD AA AA           LDA $AAAA
01345  C912  09 02              ORA #$02
01346  C914  8D AA AA           STA $AAAA
01347  C917  AD EE CE           LDA XXCEEE
01348  C91A  8D 14 03           STA CINV
01349  C91D  AD EF CE           LDA XXCEEF
01350  C920  8D 15 03           STA CINV+1
01351  C923  28                 PLP 
01352  C924  60                 RTS 
01353  C925              ;********************************
01354  C925  85 03       XXC925 STA ADRAY1
01355  C927  86 02              STX UNUSED
01356  C929  60                 RTS 
01357  C92A              ;********************************
01358  C92A  85 21       XXC92A STA $21
01359  C92C  A0 00              LDY #$00
01360  C92E  20 79 C9    XXC92E JSR XXC979
01361  C931  20 7C CD           JSR XXCD7C
01362  C934  20 55 C8           JSR XXC855
01363  C937  20 63 C9           JSR XXC963
01364  C93A  C6 21              DEC $21
01365  C93C  D0 F0              BNE XXC92E
01366  C93E  60                 RTS 
01367  C93F              ;********************************
01368  C93F  20 A9 C8    XXC93F JSR XXC8A9
01369  C942  90 0C              BCC XXC950
01370  C944  A2 00              LDX #$00
01371  C946  20 57 CD           JSR XXCD57
01372  C949  C1 0D              CMP (VALTYP,X)
01373  C94B  F0 03              BEQ XXC950
01374  C94D  4C 97 C0           JMP XXC097
01375  C950              ;********************************
01376  C950  20 63 C9    XXC950 JSR XXC963






MONITOR$C000......PAGE 0027

LINE# LOC   CODE        LINE


01377  C953  C6 20              DEC TEMPST+7
01378  C955  60                 RTS 
01379  C956              ;********************************
01380  C956  A9 04       XXC956 LDA #$04
01381  C958  85 C1              STA STAL
01382  C95A  A9 00              LDA #$00
01383  C95C  85 C2              STA STAL+1
01384  C95E  A9 05              LDA #$05
01385  C960  E6 0F              INC GARBFL
01386  C962  60                 RTS 
01387  C963              ;********************************
01388  C963  E6 C1       XXC963 INC STAL
01389  C965  D0 06              BNE XXC96D
01390  C967  E6 C2              INC STAL+1
01391  C969  D0 02              BNE XXC96D
01392  C96B  E6 29              INC RESHO+3
01393  C96D  60          XXC96D RTS 
01394  C96E              ;********************************
01395  C96E  98          XXC96E TYA 
01396  C96F  48                 PHA 
01397  C970  20 7C C9           JSR XXC97C
01398  C973  68                 PLA 
01399  C974  A2 2E       XXC974 LDX #$2E        ;'.'
01400  C976  20 64 C8           JSR XXC864
01401  C979  A9 20       XXC979 LDA #$20        ;' '
01402  C97B              ;********************************
01403  C97B  2C                 .BYTE $2C
01404  C97C              ;********************************
01405  C97C  A9 0D       XXC97C LDA #$0D
01406  C97E  4C 09 C0           JMP MCHROT
01407  C981              ;********************************
01408  C981              ; R
01409  C981              ;********************************
01410  C981  A5 C8       ZZC981 LDA $C8
01411  C983  C9 02              CMP #$02
01412  C985  90 21              BCC XXC9A8
01413  C987  20 06 C0           JSR MCHRIN
01414  C98A  C9 42              CMP #$42        ;'B'
01415  C98C  D0 1A              BNE XXC9A8
01416  C98E  A5 1A              LDA TEMPST+1
01417  C990  C9 FF              CMP #$FF
01418  C992  F0 14              BEQ XXC9A8
01419  C994  A6 14              LDX LINNUM
01420  C996  A4 15              LDY LINNUM+1
01421  C998  86 C1              STX STAL
01422  C99A  84 C2              STY STAL+1
01423  C99C  A0 00              LDY #$00
01424  C99E  20 AB CD           JSR XXCDAB
01425  C9A1  A9 FF              LDA #$FF
01426  C9A3  85 1A              STA TEMPST+1
01427  C9A5  4C 9C C0           JMP XXC09C
01428  C9A8              ;********************************
01429  C9A8  A2 00       XXC9A8 LDX #$00
01430  C9AA  BD 97 CE    XXC9AA LDA XXCE97,X
01431  C9AD  20 09 C0           JSR MCHROT






MONITOR$C000......PAGE 0028

LINE# LOC   CODE        LINE


01432  C9B0  E8                 INX 
01433  C9B1  E0 16              CPX #$16
01434  C9B3  D0 F5              BNE XXC9AA
01435  C9B5  20 7C C9           JSR XXC97C
01436  C9B8  A2 2E              LDX #$2E        ;'.'
01437  C9BA  A9 3B              LDA #$3B        ;';'
01438  C9BC  20 64 C8           JSR XXC864
01439  C9BF  A5 02              LDA UNUSED
01440  C9C1  20 55 C8           JSR XXC855
01441  C9C4  A5 03              LDA ADRAY1
01442  C9C6  20 55 C8           JSR XXC855
01443  C9C9  20 56 C9           JSR XXC956
01444  C9CC  20 2A C9           JSR XXC92A
01445  C9CF  C6 0F              DEC GARBFL
01446  C9D1  4C 9C C0    XXC9D1 JMP XXC09C
01447  C9D4              ;********************************
01448  C9D4  4C 97 C0           JMP XXC097
01449  C9D7              ;********************************
01450  C9D7              ; ;
01451  C9D7              ;********************************
01452  C9D7  20 87 C8    ZZC9D7 JSR XXC887
01453  C9DA  20 25 C9           JSR XXC925
01454  C9DD  20 56 C9           JSR XXC956
01455  C9E0  85 20              STA TEMPST+7
01456  C9E2  20 DB C8    XXC9E2 JSR XXC8DB
01457  C9E5  20 3F C9           JSR XXC93F
01458  C9E8  D0 F8              BNE XXC9E2
01459  C9EA  C6 0F              DEC GARBFL
01460  C9EC  F0 E3              BEQ XXC9D1
01461  C9EE              ;********************************
01462  C9EE              ; X
01463  C9EE              ;********************************
01464  C9EE  78          ZZC9EE SEI 
01465  C9EF  20 3A CD           JSR XXCD3A
01466  C9F2  A6 08              LDX ENDCHR
01467  C9F4  9A                 TXS 
01468  C9F5  20 F9 CC           JSR XXCCF9
01469  C9F8  6C 02 A0           JMP ($A002)
01470  C9FB              ;********************************
01471  C9FB  4C 97 C0    XXC9FB JMP XXC097
01472  C9FE              ;********************************
01473  C9FE              ; L AND S
01474  C9FE              ;********************************
01475  C9FE  A0 01       ZZC9FE LDY #$01
01476  CA00  84 BA              STY $BA
01477  CA02  84 B9              STY $B9
01478  CA04  88                 DEY 
01479  CA05  84 B7              STY $B7
01480  CA07  84 90              STY $90
01481  CA09  84 93              STY $93
01482  CA0B  A9 00              LDA #$00
01483  CA0D  85 BC              STA $BC
01484  CA0F  A9 33              LDA #$33        ;'3'
01485  CA11  85 BB              STA $BB
01486  CA13  20 06 C0    XXCA13 JSR MCHRIN






MONITOR$C000......PAGE 0029

LINE# LOC   CODE        LINE


01487  CA16  C9 20              CMP #$20        ;' '
01488  CA18  F0 F9              BEQ XXCA13
01489  CA1A  C9 0D              CMP #$0D
01490  CA1C  F0 1A              BEQ XXCA38
01491  CA1E  C9 22              CMP #$22        ;'"'
01492  CA20  D0 D9       XXCA20 BNE XXC9FB
01493  CA22  20 06 C0    XXCA22 JSR MCHRIN
01494  CA25  C9 22              CMP #$22        ;'"'
01495  CA27  F0 26              BEQ XXCA4F
01496  CA29  C9 0D              CMP #$0D
01497  CA2B  F0 0B              BEQ XXCA38
01498  CA2D  91 BB              STA ($BB),Y
01499  CA2F  E6 B7              INC $B7
01500  CA31  C8                 INY 
01501  CA32  C0 10              CPY #$10
01502  CA34  F0 C5       XXCA34 BEQ XXC9FB
01503  CA36  D0 EA              BNE XXCA22
01504  CA38  A5 1E       XXCA38 LDA $1E
01505  CA3A  C9 4C              CMP #$4C        ;'L'
01506  CA3C  D0 E2       XXCA3C BNE XXCA20
01507  CA3E  A9 00              LDA #$00
01508  CA40  20 D5 FF           JSR LOAD
01509  CA43  20 F3 C8           JSR XXC8F3
01510  CA46  A5 90              LDA $90
01511  CA48  29 10              AND #$10
01512  CA4A  D0 F0       XXCA4A BNE XXCA3C
01513  CA4C  4C 9C C0           JMP XXC09C
01514  CA4F              ;********************************
01515  CA4F  20 06 C0    XXCA4F JSR MCHRIN
01516  CA52  C9 0D              CMP #$0D
01517  CA54  F0 E2              BEQ XXCA38
01518  CA56  C9 2C              CMP #$2C        ;','
01519  CA58  D0 F0       XXCA58 BNE XXCA4A
01520  CA5A  20 A9 C8           JSR XXC8A9
01521  CA5D  29 0F              AND #$0F
01522  CA5F  F0 D3       XXCA5F BEQ XXCA34
01523  CA61  C9 03              CMP #$03
01524  CA63  F0 FA              BEQ XXCA5F
01525  CA65  85 BA              STA $BA
01526  CA67  20 06 C0           JSR MCHRIN
01527  CA6A  C9 0D              CMP #$0D
01528  CA6C  F0 CA              BEQ XXCA38
01529  CA6E  C9 2C              CMP #$2C        ;','
01530  CA70  D0 E6       XXCA70 BNE XXCA58
01531  CA72  20 2E C8           JSR XXC82E
01532  CA75  20 06 C0           JSR MCHRIN
01533  CA78  C9 2C              CMP #$2C        ;','
01534  CA7A  D0 F4       XXCA7A BNE XXCA70
01535  CA7C  20 9A C8           JSR XXC89A
01536  CA7F  85 AE              STA SAL+2
01537  CA81  86 AF              STX SAL+3
01538  CA83  20 06 C0    XXCA83 JSR MCHRIN
01539  CA86  C9 20              CMP #$20        ;' '
01540  CA88  F0 F9              BEQ XXCA83
01541  CA8A  C9 0D              CMP #$0D






MONITOR$C000......PAGE 0030

LINE# LOC   CODE        LINE


01542  CA8C  D0 EC       XXCA8C BNE XXCA7A
01543  CA8E  A5 1E              LDA $1E
01544  CA90  C9 53              CMP #$53        ;'S'
01545  CA92  D0 F8              BNE XXCA8C
01546  CA94  20 7C C9           JSR XXC97C
01547  CA97  A9 00              LDA #$00
01548  CA99  85 B9              STA $B9
01549  CA9B  A6 AE              LDX SAL+2
01550  CA9D  A4 AF              LDY SAL+3
01551  CA9F  A9 C1              LDA #$C1
01552  CAA1  20 D8 FF           JSR SAVE
01553  CAA4  4C 9C C0           JMP XXC09C
01554  CAA7              ;********************************
01555  CAA7              ;
01556  CAA7              ;********************************
01557  CAA7  A5 31       XXCAA7 LDA STREND
01558  CAA9  D0 04              BNE XXCAAF
01559  CAAB  A5 C6              LDA NDX
01560  CAAD  D0 06              BNE XXCAB5
01561  CAAF  68          XXCAAF PLA 
01562  CAB0  A8                 TAY 
01563  CAB1  68                 PLA 
01564  CAB2  AA                 TAX 
01565  CAB3  68                 PLA 
01566  CAB4  40                 RTI 
01567  CAB5              ;********************************
01568  CAB5  AD 77 02    XXCAB5 LDA KEYD
01569  CAB8  C9 11              CMP #$11
01570  CABA  F0 03              BEQ XXCABF
01571  CABC  4C 55 CB           JMP XXCB55
01572  CABF              ;********************************
01573  CABF  A5 D6       XXCABF LDA TBLX
01574  CAC1  C9 18              CMP #$18
01575  CAC3  D0 EA              BNE XXCAAF
01576  CAC5  A5 D1              LDA PNT
01577  CAC7  85 C3              STA MEMUSS
01578  CAC9  A5 D2              LDA PNT+1
01579  CACB  85 C4              STA MEMUSS+1
01580  CACD  A9 19              LDA #$19
01581  CACF  85 2D              STA VARTAB
01582  CAD1  A0 01       XXCAD1 LDY #$01
01583  CAD3  20 B3 CC           JSR XXCCB3
01584  CAD6  C9 3A              CMP #$3A        ;':'
01585  CAD8  F0 19              BEQ XXCAF3
01586  CADA  C9 2C              CMP #$2C        ;','
01587  CADC  F0 15              BEQ XXCAF3
01588  CADE  C9 27              CMP #$27        ;'''
01589  CAE0  F0 11              BEQ XXCAF3
01590  CAE2  C6 2D              DEC VARTAB
01591  CAE4  F0 C9              BEQ XXCAAF
01592  CAE6  38                 SEC 
01593  CAE7  A5 C3              LDA MEMUSS
01594  CAE9  E9 28              SBC #$28        ;'('
01595  CAEB  85 C3              STA MEMUSS
01596  CAED  B0 E2              BCS XXCAD1






MONITOR$C000......PAGE 0031

LINE# LOC   CODE        LINE


01597  CAEF  C6 C4              DEC MEMUSS+1
01598  CAF1  D0 DE              BNE XXCAD1
01599  CAF3  85 1E       XXCAF3 STA $1E
01600  CAF5  20 6F CC           JSR XXCC6F
01601  CAF8  B0 B5              BCS XXCAAF
01602  CAFA  A5 1E              LDA $1E
01603  CAFC  C9 3A              CMP #$3A        ;':'
01604  CAFE  F0 15              BEQ XXCB15
01605  CB00  C9 27              CMP #$27        ;'''
01606  CB02  D0 31              BNE XXCB35
01607  CB04  18                 CLC 
01608  CB05  A9 08              LDA #$08
01609  CB07  65 C1              ADC STAL
01610  CB09  85 C1              STA STAL
01611  CB0B  90 02              BCC XXCB0F
01612  CB0D  E6 C2              INC STAL+1
01613  CB0F  20 BE C3    XXCB0F JSR XXC3BE
01614  CB12  4C 44 CB           JMP XXCB44
01615  CB15              ;********************************
01616  CB15  18          XXCB15 CLC 
01617  CB16  A5 C1              LDA STAL
01618  CB18  69 08              ADC #$08
01619  CB1A  85 C1              STA STAL
01620  CB1C  90 02              BCC XXCB20
01621  CB1E  E6 C2              INC STAL+1
01622  CB20  20 7C C9    XXCB20 JSR XXC97C
01623  CB23  A2 2E              LDX #$2E        ;'.'
01624  CB25  A9 3A              LDA #$3A        ;':'
01625  CB27  20 64 C8           JSR XXC864
01626  CB2A  20 4E C8           JSR XXC84E
01627  CB2D  A9 08              LDA #$08
01628  CB2F  20 2A C9           JSR XXC92A
01629  CB32  4C 44 CB           JMP XXCB44
01630  CB35              ;********************************
01631  CB35  20 1B CC    XXCB35 JSR XXCC1B
01632  CB38  20 B5 C2           JSR XXC2B5
01633  CB3B  A9 00              LDA #$00
01634  CB3D  85 23              STA INDEX+1
01635  CB3F  A0 2C              LDY #$2C        ;','
01636  CB41  20 5B C2           JSR XXC25B
01637  CB44  A9 00       XXCB44 LDA #$00
01638  CB46  85 C6              STA NDX
01639  CB48  85 31              STA STREND
01640  CB4A  85 29              STA RESHO+3
01641  CB4C  20 97 C5           JSR XXC597
01642  CB4F  20 7C C9           JSR XXC97C
01643  CB52  4C AF CA           JMP XXCAAF
01644  CB55              ;********************************
01645  CB55  C9 91       XXCB55 CMP #$91
01646  CB57  F0 03              BEQ XXCB5C
01647  CB59  4C AF CA           JMP XXCAAF
01648  CB5C              ;********************************
01649  CB5C  A5 D6       XXCB5C LDA TBLX
01650  CB5E  F0 03              BEQ XXCB63
01651  CB60  4C AF CA           JMP XXCAAF






MONITOR$C000......PAGE 0032

LINE# LOC   CODE        LINE


01652  CB63              ;********************************
01653  CB63  A5 D1       XXCB63 LDA PNT
01654  CB65  85 C3              STA MEMUSS
01655  CB67  A5 D2              LDA PNT+1
01656  CB69  85 C4              STA MEMUSS+1
01657  CB6B  A9 19              LDA #$19
01658  CB6D  85 2D              STA VARTAB
01659  CB6F  A0 01       XXCB6F LDY #$01
01660  CB71  20 B3 CC           JSR XXCCB3
01661  CB74  C9 3A              CMP #$3A        ;':'
01662  CB76  F0 19              BEQ XXCB91
01663  CB78  C9 2C              CMP #$2C        ;','
01664  CB7A  F0 15              BEQ XXCB91
01665  CB7C  C9 27              CMP #$27        ;'''
01666  CB7E  F0 11              BEQ XXCB91
01667  CB80  C6 2D              DEC VARTAB
01668  CB82  F0 14              BEQ XXCB98
01669  CB84  18                 CLC 
01670  CB85  A5 C3              LDA MEMUSS
01671  CB87  69 28              ADC #$28        ;'('
01672  CB89  85 C3              STA MEMUSS
01673  CB8B  90 E2              BCC XXCB6F
01674  CB8D  E6 C4              INC MEMUSS+1
01675  CB8F  D0 DE              BNE XXCB6F
01676  CB91  85 1E       XXCB91 STA $1E
01677  CB93  20 6F CC           JSR XXCC6F
01678  CB96  90 03              BCC XXCB9B
01679  CB98  4C AF CA    XXCB98 JMP XXCAAF
01680  CB9B              ;********************************
01681  CB9B  A5 1E       XXCB9B LDA $1E
01682  CB9D  C9 3A              CMP #$3A        ;':'
01683  CB9F  F0 18              BEQ XXCBB9
01684  CBA1  C9 27              CMP #$27        ;'''
01685  CBA3  D0 33              BNE XXCBD8
01686  CBA5  20 23 CC           JSR XXCC23
01687  CBA8  38                 SEC 
01688  CBA9  A5 C1              LDA STAL
01689  CBAB  E9 08              SBC #$08
01690  CBAD  85 C1              STA STAL
01691  CBAF  B0 02              BCS XXCBB3
01692  CBB1  C6 C2              DEC STAL+1
01693  CBB3  20 C1 C3    XXCBB3 JSR XXC3C1
01694  CBB6  4C CA CB           JMP XXCBCA
01695  CBB9              ;********************************
01696  CBB9  20 23 CC    XXCBB9 JSR XXCC23
01697  CBBC  38                 SEC 
01698  CBBD  A5 C1              LDA STAL
01699  CBBF  E9 08              SBC #$08
01700  CBC1  85 C1              STA STAL
01701  CBC3  B0 02              BCS XXCBC7
01702  CBC5  C6 C2              DEC STAL+1
01703  CBC7  20 11 C4    XXCBC7 JSR XXC411
01704  CBCA  A9 00       XXCBCA LDA #$00
01705  CBCC  85 C6              STA NDX
01706  CBCE  85 31              STA STREND






MONITOR$C000......PAGE 0033

LINE# LOC   CODE        LINE


01707  CBD0  85 29              STA RESHO+3
01708  CBD2  20 6A CC           JSR XXCC6A
01709  CBD5  4C AF CA           JMP XXCAAF
01710  CBD8              ;********************************
01711  CBD8  20 23 CC    XXCBD8 JSR XXCC23
01712  CBDB  A5 C1              LDA STAL
01713  CBDD  A6 C2              LDX STAL+1
01714  CBDF  85 C3              STA MEMUSS
01715  CBE1  86 C4              STX MEMUSS+1
01716  CBE3  A9 10              LDA #$10
01717  CBE5  85 2D              STA VARTAB
01718  CBE7  38          XXCBE7 SEC 
01719  CBE8  A5 C3              LDA MEMUSS
01720  CBEA  E5 2D              SBC VARTAB
01721  CBEC  85 C1              STA STAL
01722  CBEE  A5 C4              LDA MEMUSS+1
01723  CBF0  E9 00              SBC #$00
01724  CBF2  85 C2              STA STAL+1
01725  CBF4  20 1B CC    XXCBF4 JSR XXCC1B
01726  CBF7  20 B5 C2           JSR XXC2B5
01727  CBFA  20 11 C1           JSR XXC111
01728  CBFD  F0 06              BEQ XXCC05
01729  CBFF  B0 F3              BCS XXCBF4
01730  CC01  C6 2D              DEC VARTAB
01731  CC03  D0 E2              BNE XXCBE7
01732  CC05  E6 22       XXCC05 INC INDEX
01733  CC07  A5 22              LDA INDEX
01734  CC09  20 91 C3           JSR XXC391
01735  CC0C  A2 00              LDX #$00
01736  CC0E  86 23              STX INDEX+1
01737  CC10  A9 2C              LDA #$2C        ;','
01738  CC12  20 74 C9           JSR XXC974
01739  CC15  20 5E C2           JSR XXC25E
01740  CC18  4C CA CB           JMP XXCBCA
01741  CC1B              ;********************************
01742  CC1B  A2 00       XXCC1B LDX #$00
01743  CC1D  20 49 CD           JSR XXCD49
01744  CC20  4C F5 C2           JMP XXC2F5
01745  CC23              ;********************************
01746  CC23              ;********************************
01747  CC23              ;.END
01748  CC23              ;*=$CC23
01749  CC23              ;********************************
01750  CC23  A9 00       XXCC23 LDA #$00
01751  CC25  85 AE              STA SAL+2
01752  CC27  A9 DB              LDA #$DB
01753  CC29  85 AF              STA SAL+3
01754  CC2B  85 B1              STA CMPO+1
01755  CC2D  A9 07              LDA #$07
01756  CC2F  85 AD              STA SAL+1
01757  CC31  85 C4              STA MEMUSS+1
01758  CC33  A9 00              LDA #$00
01759  CC35  85 AC              STA SAL
01760  CC37  A9 28              LDA #$28        ;'('
01761  CC39  85 C3              STA MEMUSS






MONITOR$C000......PAGE 0034

LINE# LOC   CODE        LINE


01762  CC3B  85 B0              STA CMPO
01763  CC3D  A0 BF              LDY #$BF
01764  CC3F  A2 04              LDX #$04
01765  CC41  B1 AC       XXCC41 LDA (SAL),Y
01766  CC43  91 C3              STA (MEMUSS),Y
01767  CC45  B1 AE              LDA (SAL+2),Y
01768  CC47  91 B0              STA (CMPO),Y
01769  CC49  88                 DEY 
01770  CC4A  D0 F5              BNE XXCC41
01771  CC4C  B1 AC              LDA (SAL),Y
01772  CC4E  91 C3              STA (MEMUSS),Y
01773  CC50  B1 AE              LDA (SAL+2),Y
01774  CC52  91 B0              STA (CMPO),Y
01775  CC54  88                 DEY 
01776  CC55  C6 AD              DEC SAL+1
01777  CC57  C6 C4              DEC MEMUSS+1
01778  CC59  C6 AF              DEC SAL+3
01779  CC5B  C6 B1              DEC CMPO+1
01780  CC5D  CA                 DEX 
01781  CC5E  D0 E1              BNE XXCC41
01782  CC60  A2 27              LDX #$27        ;'''
01783  CC62  A9 20              LDA #$20        ;' '
01784  CC64  9D 00 04    XXCC64 STA VICSCN,X
01785  CC67  CA                 DEX 
01786  CC68  10 FA              BPL XXCC64
01787  CC6A  A9 13       XXCC6A LDA #$13
01788  CC6C  4C 09 C0           JMP MCHROT
01789  CC6F              ;********************************
01790  CC6F  C0 28       XXCC6F CPY #$28        ;'('
01791  CC71  D0 02              BNE XXCC75
01792  CC73  38                 SEC 
01793  CC74  60                 RTS 
01794  CC75              ;********************************
01795  CC75  20 B3 CC    XXCC75 JSR XXCCB3
01796  CC78  C9 20              CMP #$20        ;' '
01797  CC7A  F0 F3              BEQ XXCC6F
01798  CC7C  88                 DEY 
01799  CC7D  20 9E CC           JSR XXCC9E
01800  CC80  AA                 TAX 
01801  CC81  20 9E CC           JSR XXCC9E
01802  CC84  85 C1              STA STAL
01803  CC86  86 C2              STX STAL+1
01804  CC88  A9 FF              LDA #$FF
01805  CC8A  85 31              STA STREND
01806  CC8C  85 CC              STA $CC
01807  CC8E  A5 CF              LDA BLNON
01808  CC90  F0 0A              BEQ XXCC9C
01809  CC92  A5 CE              LDA GDBLN
01810  CC94  A4 D3              LDY PNTR
01811  CC96  91 D1              STA (PNT),Y
01812  CC98  A9 00              LDA #$00
01813  CC9A  85 CF              STA BLNON
01814  CC9C  18          XXCC9C CLC 
01815  CC9D  60                 RTS 
01816  CC9E              ;********************************






MONITOR$C000......PAGE 0035

LINE# LOC   CODE        LINE


01817  CC9E  20 B3 CC    XXCC9E JSR XXCCB3
01818  CCA1  20 D0 C8           JSR XXC8D0
01819  CCA4  0A                 ASL A
01820  CCA5  0A                 ASL A
01821  CCA6  0A                 ASL A
01822  CCA7  0A                 ASL A
01823  CCA8  85 2C              STA TXTTAB+1
01824  CCAA  20 B3 CC           JSR XXCCB3
01825  CCAD  20 D0 C8           JSR XXC8D0
01826  CCB0  05 2C              ORA TXTTAB+1
01827  CCB2  60                 RTS 
01828  CCB3              ;********************************
01829  CCB3  B1 C3       XXCCB3 LDA (MEMUSS),Y
01830  CCB5  C8                 INY 
01831  CCB6  29 7F              AND #$7F
01832  CCB8  C9 20              CMP #$20        ;' '
01833  CCBA  B0 02              BCS XXCCBE
01834  CCBC  09 40              ORA #$40        ;'@'
01835  CCBE  60          XXCCBE RTS 
01836  CCBF              ;********************************
01837  CCBF              ; E
01838  CCBF              ;********************************
01839  CCBF  20 87 C8    ZZCCBF JSR XXC887
01840  CCC2  E0 04              CPX #$04
01841  CCC4  90 23              BCC XXCCE9
01842  CCC6  85 F9              STA ROBUF
01843  CCC8  86 FA              STX ROBUF+1
01844  CCCA  8D 83 02           STA MEMSIZ
01845  CCCD  8E 84 02           STX MEMSIZ+1
01846  CCD0  85 C3              STA MEMUSS
01847  CCD2  86 C4              STX MEMUSS+1
01848  CCD4  A0 00              LDY #$00
01849  CCD6  A9 55       XXCCD6 LDA #$55        ;'U'
01850  CCD8  91 C3              STA (MEMUSS),Y
01851  CCDA  D1 C3              CMP (MEMUSS),Y
01852  CCDC  D0 0B              BNE XXCCE9
01853  CCDE  B9 00 00           LDA D6510,Y
01854  CCE1  91 C3              STA (MEMUSS),Y
01855  CCE3  C8                 INY 
01856  CCE4  D0 F0              BNE XXCCD6
01857  CCE6  4C 9C C0           JMP XXC09C
01858  CCE9              ;********************************
01859  CCE9  86 C3       XXCCE9 STX MEMUSS
01860  CCEB  05 C3              ORA MEMUSS
01861  CCED  D0 07              BNE XXCCF6
01862  CCEF  85 F9              STA ROBUF
01863  CCF1  86 FA              STX ROBUF+1
01864  CCF3  4C 9C C0           JMP XXC09C
01865  CCF6              ;********************************
01866  CCF6  4C 97 C0    XXCCF6 JMP XXC097
01867  CCF9              ;********************************
01868  CCF9  48          XXCCF9 PHA 
01869  CCFA  8A                 TXA 
01870  CCFB  48                 PHA 
01871  CCFC  98                 TYA 






MONITOR$C000......PAGE 0036

LINE# LOC   CODE        LINE


01872  CCFD  48                 PHA 
01873  CCFE  A5 FA              LDA ROBUF+1
01874  CD00  F0 11              BEQ XXCD13
01875  CD02  A0 00              LDY #$00
01876  CD04  B9 00 00    XXCD04 LDA D6510,Y
01877  CD07  AA                 TAX 
01878  CD08  B1 F9              LDA (ROBUF),Y
01879  CD0A  99 00 00           STA D6510,Y
01880  CD0D  8A                 TXA 
01881  CD0E  91 F9              STA (ROBUF),Y
01882  CD10  C8                 INY 
01883  CD11  D0 F1              BNE XXCD04
01884  CD13  68          XXCD13 PLA 
01885  CD14  A8                 TAY 
01886  CD15  68                 PLA 
01887  CD16  AA                 TAX 
01888  CD17  68                 PLA 
01889  CD18  60                 RTS 
01890  CD19              ;********************************
01891  CD19  AD 14 03    XXCD19 LDA CINV
01892  CD1C  AE 15 03           LDX CINV+1
01893  CD1F  CD EE CE           CMP XXCEEE
01894  CD22  D0 05              BNE XXCD29
01895  CD24  EC EF CE           CPX XXCEEF
01896  CD27  F0 10              BEQ XXCD39
01897  CD29  85 18       XXCD29 STA $18
01898  CD2B  86 19              STX $19
01899  CD2D  AD EE CE           LDA XXCEEE
01900  CD30  AE EF CE           LDX XXCEEF
01901  CD33  8D 14 03           STA CINV
01902  CD36  8E 15 03           STX CINV+1
01903  CD39  60          XXCD39 RTS 
01904  CD3A              ;********************************
01905  CD3A  A5 18       XXCD3A LDA $18
01906  CD3C  8D 14 03           STA CINV
01907  CD3F  A5 19              LDA $19
01908  CD41  8D 15 03           STA CINV+1
01909  CD44  60                 RTS 
01910  CD45              ;********************************
01911  CD45  A2 02       XXCD45 LDX #$02
01912  CD47  D0 02              BNE XXCD4B
01913  CD49  A2 00       XXCD49 LDX #$00
01914  CD4B  20 63 CD    XXCD4B JSR XXCD63
01915  CD4E  A2 00              LDX #$00
01916  CD50  A1 0D              LDA (VALTYP,X)
01917  CD52  60                 RTS 
01918  CD53              ;********************************
01919  CD53  A2 02       XXCD53 LDX #$02
01920  CD55  D0 02              BNE XXCD59
01921  CD57  A2 00       XXCD57 LDX #$00
01922  CD59  48          XXCD59 PHA 
01923  CD5A  20 63 CD           JSR XXCD63
01924  CD5D  68                 PLA 
01925  CD5E  A2 00              LDX #$00
01926  CD60  81 0D              STA (VALTYP,X)






MONITOR$C000......PAGE 0037

LINE# LOC   CODE        LINE


01927  CD62  60                 RTS 
01928  CD63              ;********************************
01929  CD63  B5 C2       XXCD63 LDA STAL+1,X
01930  CD65  D0 0E              BNE XXCD75
01931  CD67  18                 CLC 
01932  CD68  A5 F9              LDA ROBUF
01933  CD6A  75 C1              ADC STAL,X
01934  CD6C  85 0D              STA VALTYP
01935  CD6E  A5 FA              LDA ROBUF+1
01936  CD70  75 C2              ADC STAL+1,X
01937  CD72  85 0E              STA INTFLG
01938  CD74  60                 RTS 
01939  CD75              ;********************************
01940  CD75  85 0E       XXCD75 STA INTFLG
01941  CD77  B5 C1              LDA STAL,X
01942  CD79  85 0D              STA VALTYP
01943  CD7B  60                 RTS 
01944  CD7C              ;********************************
01945  CD7C  08          XXCD7C PHP 
01946  CD7D  68                 PLA 
01947  CD7E  29 EF              AND #$EF
01948  CD80  48                 PHA 
01949  CD81  84 0C              STY DIMFLG
01950  CD83  98                 TYA 
01951  CD84  18                 CLC 
01952  CD85  65 C1              ADC STAL
01953  CD87  85 0D              STA VALTYP
01954  CD89  A9 00              LDA #$00
01955  CD8B  65 C2              ADC STAL+1
01956  CD8D  85 0E              STA INTFLG
01957  CD8F  C9 01              CMP #$01
01958  CD91  B0 10              BCS XXCDA3
01959  CD93  A5 0F              LDA GARBFL
01960  CD95  D0 0C              BNE XXCDA3
01961  CD97  A5 0D              LDA VALTYP
01962  CD99  65 F9              ADC ROBUF
01963  CD9B  85 0D              STA VALTYP
01964  CD9D  A5 0E              LDA INTFLG
01965  CD9F  65 FA              ADC ROBUF+1
01966  CDA1  85 0E              STA INTFLG
01967  CDA3  A0 00       XXCDA3 LDY #$00
01968  CDA5  B1 0D              LDA (VALTYP),Y
01969  CDA7  A4 0C              LDY DIMFLG
01970  CDA9  28                 PLP 
01971  CDAA  60                 RTS 
01972  CDAB              ;********************************
01973  CDAB  48          XXCDAB PHA 
01974  CDAC  20 7C CD           JSR XXCD7C
01975  CDAF  84 0C              STY DIMFLG
01976  CDB1  A0 00              LDY #$00
01977  CDB3  68                 PLA 
01978  CDB4  91 0D              STA (VALTYP),Y
01979  CDB6  A4 0C              LDY DIMFLG
01980  CDB8  60                 RTS 
01981  CDB9              ;********************************






MONITOR$C000......PAGE 0038

LINE# LOC   CODE        LINE


01982  CDB9              ; MODE TABLE... NYBBLE ORGANIZED
01983  CDB9              ;
01984  CDB9              ; 0= ERR  4= IMPLIED  8= ZER,X   C= ZER,Y
01985  CDB9              ; 1= IMM  5= ACC      9= ABS,X   D= REL
01986  CDB9              ; 2= ZER  6= (IND,X)  A= ABS,Y
01987  CDB9              ; 3= ABS  7= (IND),Y  B= (IND)
01988  CDB9              ;
01989  CDB9              ;********************************
01990  CDB9              ; SUPERMON
01991  CDB9              ;********************************
01992  CDB9              ; MODE TABLE... NYBBLE ORGANIZED
01993  CDB9              ; 0= ERR  4= IMPLIED  8= ZER,X   C= ZER,Y
01994  CDB9              ; 1= IMM  5= ACC      9= ABS,X   D= REL
01995  CDB9              ; 2= ZER  6= (IND,X)  A= ABS,Y
01996  CDB9              ; 3= ABS  7= (IND),Y  B= (IND)
01997  CDB9              ;MODE
01998  CDB9              ;.BYTE $40,$02,$45,$03
01999  CDB9              ;.BYTE $D0,$08,$40,$09
02000  CDB9              ;.BYTE $30,$22,$45,$33
02001  CDB9              ;.BYTE $D0,$08,$40,$09
02002  CDB9              ;.BYTE $40,$02,$45,$33
02003  CDB9              ;.BYTE $D0,$08,$40,$09
02004  CDB9              ;.BYTE $40,$02,$45,$B3
02005  CDB9              ;.BYTE $D0,$08,$40,$09
02006  CDB9              ;.BYTE $00,$22,$44,$33
02007  CDB9              ;.BYTE $D0,$8C,$44,$00
02008  CDB9              ;.BYTE $11,$22,$44,$33
02009  CDB9              ;.BYTE $D0,$8C,$44,$9A
02010  CDB9              ;.BYTE $10,$22,$44,$33
02011  CDB9              ;.BYTE $D0,$08,$40,$09
02012  CDB9              ;.BYTE $10,$22,$44,$33
02013  CDB9              ;.BYTE $D0,$08,$40,$09
02014  CDB9              ;.BYTE $62,$13,$78,$A9
02015  CDB9              ;********************************
02016  CDB9              ;XXCDB9 RTI 
02017  CDB9  40          XXCDB9 .BYTE $40
02018  CDBA  02                 .BYTE $02
02019  CDBB  45                 .BYTE $45       ;'E'
02020  CDBC  03                 .BYTE $03
02021  CDBD  D0                 .BYTE $D0
02022  CDBE  08                 .BYTE $08
02023  CDBF  40                 .BYTE $40       ;'@'
02024  CDC0  09                 .BYTE $09
02025  CDC1  30                 .BYTE $30       ;'0'
02026  CDC2  22                 .BYTE $22       ;'"'
02027  CDC3  45                 .BYTE $45       ;'E'
02028  CDC4  33                 .BYTE $33       ;'3'
02029  CDC5  D0                 .BYTE $D0
02030  CDC6  08                 .BYTE $08
02031  CDC7  40                 .BYTE $40       ;'@'
02032  CDC8  09                 .BYTE $09
02033  CDC9  40                 .BYTE $40       ;'@'
02034  CDCA  02                 .BYTE $02
02035  CDCB  45                 .BYTE $45       ;'E'
02036  CDCC  33                 .BYTE $33       ;'3'






MONITOR$C000......PAGE 0039

LINE# LOC   CODE        LINE


02037  CDCD  D0                 .BYTE $D0
02038  CDCE  08                 .BYTE $08
02039  CDCF  40                 .BYTE $40       ;'@'
02040  CDD0  09                 .BYTE $09
02041  CDD1  40                 .BYTE $40       ;'@'
02042  CDD2  02                 .BYTE $02
02043  CDD3  45                 .BYTE $45       ;'E'
02044  CDD4  B3                 .BYTE $B3
02045  CDD5  D0                 .BYTE $D0
02046  CDD6  08                 .BYTE $08
02047  CDD7  40                 .BYTE $40       ;'@'
02048  CDD8  09                 .BYTE $09
02049  CDD9  00                 .BYTE $00
02050  CDDA  22                 .BYTE $22       ;'"'
02051  CDDB  44                 .BYTE $44       ;'D'
02052  CDDC  33                 .BYTE $33       ;'3'
02053  CDDD  D0                 .BYTE $D0
02054  CDDE  8C                 .BYTE $8C
02055  CDDF  44                 .BYTE $44       ;'D'
02056  CDE0  00                 .BYTE $00
02057  CDE1  11                 .BYTE $11
02058  CDE2  22                 .BYTE $22       ;'"'
02059  CDE3  44                 .BYTE $44       ;'D'
02060  CDE4  33                 .BYTE $33       ;'3'
02061  CDE5  D0                 .BYTE $D0
02062  CDE6  8C                 .BYTE $8C
02063  CDE7  44                 .BYTE $44       ;'D'
02064  CDE8  9A                 .BYTE $9A
02065  CDE9  10                 .BYTE $10
02066  CDEA  22                 .BYTE $22       ;'"'
02067  CDEB  44                 .BYTE $44       ;'D'
02068  CDEC  33                 .BYTE $33       ;'3'
02069  CDED  D0                 .BYTE $D0
02070  CDEE  08                 .BYTE $08
02071  CDEF  40                 .BYTE $40       ;'@'
02072  CDF0  09                 .BYTE $09
02073  CDF1  10                 .BYTE $10
02074  CDF2  22                 .BYTE $22       ;'"'
02075  CDF3  44                 .BYTE $44       ;'D'
02076  CDF4  33                 .BYTE $33       ;'3'
02077  CDF5  D0                 .BYTE $D0
02078  CDF6  08                 .BYTE $08
02079  CDF7  40                 .BYTE $40       ;'@'
02080  CDF8  09                 .BYTE $09
02081  CDF9  62                 .BYTE $62
02082  CDFA  13                 .BYTE $13
02083  CDFB  78                 .BYTE $78
02084  CDFC  A9                 .BYTE $A9
02085  CDFD              ;********************************
02086  CDFD              ; MASTER MODES
02087  CDFD              ; SIX HI-ORDER BITS MODE OPTIONS
02088  CDFD              ; TWO LO-ORDER BIT OPERAND LENGHT
02089  CDFD              ;
02090  CDFD              ;********************************
02091  CDFD              ; SUPERMON






MONITOR$C000......PAGE 0040

LINE# LOC   CODE        LINE


02092  CDFD              ;********************************
02093  CDFD              ;MASTER MODES
02094  CDFD              ;SIX HI-ORDER BITS  MODE OPTIONS
02095  CDFD              ;TWO LO-ORDER BITS  OPERAND LENGTHREADY.
02096  CDFD              ;MODE2
02097  CDFD              ;.BYTE $00,$21,$81,$82
02098  CDFD              ;.BYTE $00,$00,$59,$4D
02099  CDFD              ;.BYTE $91,$92,$86,$4A,$85,$9D
02100  CDFD              ;CHAR1
02101  CDFD              ;.BYTE $2C,$29,$2C,$23,$28,$24
02102  CDFD              ;CHAR2
02103  CDFD              ;.BYTE $59,$00,$58,$24,$24,$00
02104  CDFD              ;********************************
02105  CDFD  00          XXCDFD .BYTE $00
02106  CDFE  21                 .BYTE $21       ;'!'
02107  CDFF  81                 .BYTE $81
02108  CE00  82                 .BYTE $82
02109  CE01  00                 .BYTE $00
02110  CE02  00                 .BYTE $00
02111  CE03  59                 .BYTE $59       ;'Y'
02112  CE04  4D                 .BYTE $4D       ;'M'
02113  CE05  91                 .BYTE $91
02114  CE06  92                 .BYTE $92
02115  CE07  86                 .BYTE $86
02116  CE08  4A                 .BYTE $4A       ;'J'
02117  CE09  85                 .BYTE $85
02118  CE0A  9D          XXCE0A .BYTE $9D
02119  CE0B  2C          XXCE0B .BYTE $2C       ;','
02120  CE0C  29          XXCE0C .BYTE $29       ;')'
02121  CE0D  2C          XXCE0D .BYTE $2C       ;','
02122  CE0E  23          XXCE0E .BYTE $23       ;'#'
02123  CE0F  28          XXCE0F .BYTE $28       ;'('
02124  CE10  24          XXCE10 .BYTE $24       ;'$'
02125  CE11  59                 .BYTE $59       ;'Y'
02126  CE12  00                 .BYTE $00
02127  CE13  58                 .BYTE $58       ;'X'
02128  CE14  24                 .BYTE $24       ;'$'
02129  CE15  24                 .BYTE $24       ;'$'
02130  CE16  00                 .BYTE $00
02131  CE17              ;********************************
02132  CE17              ; PACKED MNEMONICS
02133  CE17              ;********************************
02134  CE17              ; SUPERMON
02135  CE17              ;********************************
02136  CE17              ;MNEML
02137  CE17              ;.BYTE $1C,$8A,$1C,$23
02138  CE17              ;.BYTE $5D,$8B,$1B,$A1
02139  CE17              ;.BYTE $9D,$8A,$1D,$23
02140  CE17              ;.BYTE $9D,$8B,$1D,$A1
02141  CE17              ;.BYTE $00,$29,$19,$AE
02142  CE17              ;.BYTE $69,$A8,$19,$23
02143  CE17              ;.BYTE $24,$53,$1B,$23
02144  CE17              ;.BYTE $24,$53,$19,$A1
02145  CE17              ;.BYTE $00,$1A,$5B,$5B
02146  CE17              ;.BYTE $A5,$69,$24,$24






MONITOR$C000......PAGE 0041

LINE# LOC   CODE        LINE


02147  CE17              ;.BYTE $AE,$AE,$A8,$AD
02148  CE17              ;.BYTE $29,$00,$7C,$00
02149  CE17              ;.BYTE $15,$9C,$6D,$9C
02150  CE17              ;.BYTE $A5,$69,$29,$53
02151  CE17              ;.BYTE $84,$13,$34,$11
02152  CE17              ;.BYTE $A5,$69,$23,$A0
02153  CE17              ;********************************
02154  CE17  1C          XXCE17 .BYTE $1C
02155  CE18  8A                 .BYTE $8A
02156  CE19  1C                 .BYTE $1C
02157  CE1A  23                 .BYTE $23       ;'#'
02158  CE1B  5D                 .BYTE $5D       ;']'
02159  CE1C  8B                 .BYTE $8B
02160  CE1D  1B                 .BYTE $1B
02161  CE1E  A1                 .BYTE $A1
02162  CE1F  9D                 .BYTE $9D
02163  CE20  8A                 .BYTE $8A
02164  CE21  1D                 .BYTE $1D
02165  CE22  23                 .BYTE $23       ;'#'
02166  CE23  9D                 .BYTE $9D
02167  CE24  8B                 .BYTE $8B
02168  CE25  1D                 .BYTE $1D
02169  CE26  A1                 .BYTE $A1
02170  CE27  00                 .BYTE $00
02171  CE28  29                 .BYTE $29       ;')'
02172  CE29  19                 .BYTE $19
02173  CE2A  AE                 .BYTE $AE
02174  CE2B  69                 .BYTE $69
02175  CE2C  A8                 .BYTE $A8
02176  CE2D  19                 .BYTE $19
02177  CE2E  23                 .BYTE $23       ;'#'
02178  CE2F  24                 .BYTE $24       ;'$'
02179  CE30  53                 .BYTE $53       ;'S'
02180  CE31  1B                 .BYTE $1B
02181  CE32  23                 .BYTE $23       ;'#'
02182  CE33  24                 .BYTE $24       ;'$'
02183  CE34  53                 .BYTE $53       ;'S'
02184  CE35  19                 .BYTE $19
02185  CE36  A1                 .BYTE $A1
02186  CE37  00                 .BYTE $00
02187  CE38  1A                 .BYTE $1A
02188  CE39  5B                 .BYTE $5B       ;'['
02189  CE3A  5B                 .BYTE $5B       ;'['
02190  CE3B  A5                 .BYTE $A5
02191  CE3C  69                 .BYTE $69
02192  CE3D  24                 .BYTE $24       ;'$'
02193  CE3E  24                 .BYTE $24       ;'$'
02194  CE3F  AE                 .BYTE $AE
02195  CE40  AE                 .BYTE $AE
02196  CE41  A8                 .BYTE $A8
02197  CE42  AD                 .BYTE $AD
02198  CE43  29                 .BYTE $29       ;')'
02199  CE44  00                 .BYTE $00
02200  CE45  7C                 .BYTE $7C
02201  CE46  00                 .BYTE $00






MONITOR$C000......PAGE 0042

LINE# LOC   CODE        LINE


02202  CE47  15                 .BYTE $15
02203  CE48  9C                 .BYTE $9C
02204  CE49  6D                 .BYTE $6D
02205  CE4A  9C                 .BYTE $9C
02206  CE4B  A5                 .BYTE $A5
02207  CE4C  69                 .BYTE $69
02208  CE4D  29                 .BYTE $29       ;')'
02209  CE4E  53                 .BYTE $53       ;'S'
02210  CE4F  84                 .BYTE $84
02211  CE50  13                 .BYTE $13
02212  CE51  34                 .BYTE $34       ;'4'
02213  CE52  11                 .BYTE $11
02214  CE53  A5                 .BYTE $A5
02215  CE54  69                 .BYTE $69
02216  CE55  23                 .BYTE $23       ;'#'
02217  CE56  A0                 .BYTE $A0
02218  CE57              ;********************************
02219  CE57              ; PACKED MNEMONICS
02220  CE57              ;********************************
02221  CE57              ; SUPERMON
02222  CE57              ;********************************
02223  CE57              ;MNEMR
02224  CE57              ;.BYTE $D8,$62,$5A,$48
02225  CE57              ;.BYTE $26,$62,$94,$88
02226  CE57              ;.BYTE $54,$44,$C8,$54
02227  CE57              ;.BYTE $68,$44,$E8,$94
02228  CE57              ;.BYTE $00,$B4,$08,$84
02229  CE57              ;.BYTE $74,$B4,$28,$6E
02230  CE57              ;.BYTE $74,$F4,$CC,$4A
02231  CE57              ;.BYTE $72,$F2,$A4,$8A
02232  CE57              ;.BYTE $00,$AA,$A2,$A2
02233  CE57              ;.BYTE $74,$74,$74,$72
02234  CE57              ;.BYTE $44,$68,$B2,$32
02235  CE57              ;.BYTE $B2,$00,$22,$00
02236  CE57              ;.BYTE $1A,$1A,$26,$26
02237  CE57              ;.BYTE $72,$72,$88,$C8
02238  CE57              ;.BYTE $C4,$CA,$26,$48
02239  CE57              ;.BYTE $44,$44,$A2,$C8
02240  CE57              ;********************************
02241  CE57  D8          XXCE57 .BYTE $D8
02242  CE58  62                 .BYTE $62
02243  CE59  5A                 .BYTE $5A       ;'Z'
02244  CE5A  48                 .BYTE $48       ;'H'
02245  CE5B  26                 .BYTE $26       ;'&'
02246  CE5C  62                 .BYTE $62
02247  CE5D  94                 .BYTE $94
02248  CE5E  88                 .BYTE $88
02249  CE5F  54                 .BYTE $54       ;'T'
02250  CE60  44                 .BYTE $44       ;'D'
02251  CE61  C8                 .BYTE $C8
02252  CE62  54                 .BYTE $54       ;'T'
02253  CE63  68                 .BYTE $68
02254  CE64  44                 .BYTE $44       ;'D'
02255  CE65  E8                 .BYTE $E8
02256  CE66  94                 .BYTE $94






MONITOR$C000......PAGE 0043

LINE# LOC   CODE        LINE


02257  CE67  00                 .BYTE $00
02258  CE68  B4                 .BYTE $B4
02259  CE69  08                 .BYTE $08
02260  CE6A  84                 .BYTE $84
02261  CE6B  74                 .BYTE $74
02262  CE6C  B4                 .BYTE $B4
02263  CE6D  28                 .BYTE $28       ;'('
02264  CE6E  6E                 .BYTE $6E
02265  CE6F  74                 .BYTE $74
02266  CE70  F4                 .BYTE $F4
02267  CE71  CC                 .BYTE $CC
02268  CE72  4A                 .BYTE $4A       ;'J'
02269  CE73  72                 .BYTE $72
02270  CE74  F2                 .BYTE $F2
02271  CE75  A4                 .BYTE $A4
02272  CE76  8A                 .BYTE $8A
02273  CE77  00                 .BYTE $00
02274  CE78  AA                 .BYTE $AA
02275  CE79  A2                 .BYTE $A2
02276  CE7A  A2                 .BYTE $A2
02277  CE7B  74                 .BYTE $74
02278  CE7C  74                 .BYTE $74
02279  CE7D  74                 .BYTE $74
02280  CE7E  72                 .BYTE $72
02281  CE7F  44                 .BYTE $44       ;'D'
02282  CE80  68                 .BYTE $68
02283  CE81  B2                 .BYTE $B2
02284  CE82  32                 .BYTE $32       ;'2'
02285  CE83  B2                 .BYTE $B2
02286  CE84  00                 .BYTE $00
02287  CE85  22                 .BYTE $22       ;'"'
02288  CE86  00                 .BYTE $00
02289  CE87  1A                 .BYTE $1A
02290  CE88  1A                 .BYTE $1A
02291  CE89  26                 .BYTE $26       ;'&'
02292  CE8A  26                 .BYTE $26       ;'&'
02293  CE8B  72                 .BYTE $72
02294  CE8C  72                 .BYTE $72
02295  CE8D  88                 .BYTE $88
02296  CE8E  C8                 .BYTE $C8
02297  CE8F  C4                 .BYTE $C4
02298  CE90  CA                 .BYTE $CA
02299  CE91  26                 .BYTE $26       ;'&'
02300  CE92  48                 .BYTE $48       ;'H'
02301  CE93  44                 .BYTE $44       ;'D'
02302  CE94  44                 .BYTE $44       ;'D'
02303  CE95  A2                 .BYTE $A2
02304  CE96  C8                 .BYTE $C8
02305  CE97              ;*****************************
02306  CE97              ; REGISTER HEADING
02307  CE97              ;*****************************
02308  CE97  0D          XXCE97 .BYTE $0D
02309  CE98  20 20              .BYTE '   PC  SR AC XR YR SP'
02310  CEAD              ;*****************************
02311  CEAD              ; COMMANDS






MONITOR$C000......PAGE 0044

LINE# LOC   CODE        LINE


02312  CEAD              ;*****************************
02313  CEAD  41 42       XXCEAD .BYTE 'ABCDFGHILMNQRSTWX,:'
02314  CEC0  3B 45              .BYTE ';E'
02315  CEC2              ;*****************************
02316  CEC2              ; COMMAND VECTOR TABLE
02317  CEC2              ;*****************************
02318  CEC2              ;A
02319  CEC2  4C          XXCEC2 .BYTE <ZZC44C   ;'$4C ;L'
02320  CEC3  C4          XXCEC3 .BYTE >ZZC44C   ;$C4
02321  CEC4              ;B
02322  CEC4  6A                 .BYTE <ZZC76A   ;$6A
02323  CEC5  C7                 .BYTE >ZZC76A   ;$C7
02324  CEC6              ;C
02325  CEC6  21                 .BYTE <ZZC121   ;$21 ;'!'
02326  CEC7  C1                 .BYTE >ZZC121   ;$C1
02327  CEC8              ;D
02328  CEC8  41                 .BYTE <ZZC241   ;$41 ;'A'
02329  CEC9  C2                 .BYTE >ZZC241   ;$C2
02330  CECA              ;F
02331  CECA  9B                 .BYTE <ZZC19B   ;$9B
02332  CECB  C1                 .BYTE >ZZC19B   ;$C1
02333  CECC              ;G
02334  CECC  A2                 .BYTE <ZZC6A2   ;$A2
02335  CECD  C6                 .BYTE >ZZC6A2   ;$C6
02336  CECE              ;H
02337  CECE  C4                 .BYTE <ZZC1C4   ;$C4
02338  CECF  C1                 .BYTE >ZZC1C4   ;$C1
02339  CED0              ;I
02340  CED0  96                 .BYTE <ZZC396   ;$96
02341  CED1  C3                 .BYTE >ZZC396   ;$C3
02342  CED2              ;L
02343  CED2  FE                 .BYTE <ZZC9FE   ;$FE
02344  CED3  C9                 .BYTE >ZZC9FE   ;$C9
02345  CED4              ;M
02346  CED4  99                 .BYTE <ZZC399   ;$99
02347  CED5  C3                 .BYTE >ZZC399   ;$C3
02348  CED6              ;N
02349  CED6  8D                 .BYTE <ZZC78D   ;$8D
02350  CED7  C7                 .BYTE >ZZC78D   ;$C7
02351  CED8              ;Q
02352  CED8  A6                 .BYTE <ZZC6A6   ;$A6
02353  CED9  C6                 .BYTE >ZZC6A6   ;$C6
02354  CEDA              ;R
02355  CEDA  81                 .BYTE <ZZC981   ;$81
02356  CEDB  C9                 .BYTE >ZZC981   ;$C9
02357  CEDC              ;S
02358  CEDC  FE                 .BYTE <ZZC9FE   ;$FE
02359  CEDD  C9                 .BYTE >ZZC9FE   ;$C9
02360  CEDE              ;T
02361  CEDE  25                 .BYTE <ZZC125   ;$25 ;'%'
02362  CEDF  C1                 .BYTE >ZZC125   ;$C1
02363  CEE0              ;W
02364  CEE0  AA                 .BYTE <ZZC6AA   ;$AA
02365  CEE1  C6                 .BYTE >ZZC6AA   ;$C6
02366  CEE2              ;X






MONITOR$C000......PAGE 0045

LINE# LOC   CODE        LINE


02367  CEE2  EE                 .BYTE <ZZC9EE   ;$EE
02368  CEE3  C9                 .BYTE >ZZC9EE   ;$C9
02369  CEE4              ;,
02370  CEE4  4C                 .BYTE <ZZC44C   ;$4C ;'L'
02371  CEE5  C4                 .BYTE >ZZC44C   ;$C4
02372  CEE6              ;:
02373  CEE6  20                 .BYTE <ZZC420   ;$20 ;' '
02374  CEE7  C4                 .BYTE >ZZC420   ;$C4
02375  CEE8              ;;
02376  CEE8  D7                 .BYTE <ZZC9D7   ;$D7
02377  CEE9  C9                 .BYTE >ZZC9D7   ;$C9
02378  CEEA              ;E
02379  CEEA  BF                 .BYTE <ZZCCBF   ;$BF
02380  CEEB  CC                 .BYTE >ZZCCBF   ;$CC
02381  CEEC              ;?
02382  CEEC  00                 .BYTE <ENTRY    ;$00
02383  CEED  C0                 .BYTE >ENTRY    ;$C0
02384  CEEE              ;*****************************
02385  CEEE              ;
02386  CEEE              ;*****************************
02387  CEEE              ;XXCEEE .BYTE $74
02388  CEEE              ;XXCEEF .BYTE $C3
02389  CEEE  74          XXCEEE .BYTE <XXC374
02390  CEEF  C3          XXCEEF .BYTE >XXC374
02391  CEF0              ;XXCEEE .WORD XXC374
02392  CEF0              ;*****************************
02393  CEF0              ;
02394  CEF0              ;*****************************
02395  CEF0              ;XXCEF0 .BYTE $C8
02396  CEF0              ;XXCEF1 .BYTE $C5
02397  CEF0  C8          XXCEF0 .BYTE <XXC5C8
02398  CEF1  C5          XXCEF1 .BYTE >XXC5C8
02399  CEF2              ;XXCEF0 .WORD XXC5C8
02400  CEF2              ;*****************************
02401  CEF2              ; NMI VECTOR
02402  CEF2              ;*****************************
02403  CEF2              ;XXCEF2 .BYTE $3F ;'?'
02404  CEF2              ;XXCEF3 .BYTE $C0
02405  CEF2  3F          XXCEF2 .BYTE <XXC03F
02406  CEF3  C0          XXCEF3 .BYTE >XXC03F
02407  CEF4              ;XXCEF2 .WORD XXC03F
02408  CEF4              ;*****************************
02409  CEF4              ;
02410  CEF4              ;*****************************
02411  CEF4              ;XXCEF4 .BYTE $A7
02412  CEF4              ;XXCEF5 .BYTE $CA
02413  CEF4  A7          XXCEF4 .BYTE <XXCAA7
02414  CEF5  CA          XXCEF5 .BYTE >XXCAA7
02415  CEF6              ;XXCEF4 .WORD XXCAA7
02416  CEF6              ;*****************************
02417  CEF6              ;
02418  CEF6              ;*****************************
02419  CEF6              ;XXCEF6 .BYTE $AA
02420  CEF6              ;XXCEF7 .BYTE $C5
02421  CEF6  AA          XXCEF6 .BYTE <XXC5AB-1






MONITOR$C000......PAGE 0046

LINE# LOC   CODE        LINE


02422  CEF7  C5          XXCEF7 .BYTE >XXC5AB
02423  CEF8              ;XXCEF6 .WORD XXC5AB-1
02424  CEF8              ;*****************************
02425  CEF8              ; PATCH AREA
02426  CEF8              ;*****************************
02427  CEF8  AA                 .BYTE $AA
02428  CEF9  AA                 .BYTE $AA
02429  CEFA  AA                 .BYTE $AA
02430  CEFB  AA                 .BYTE $AA
02431  CEFC  AA                 .BYTE $AA
02432  CEFD  AA                 .BYTE $AA
02433  CEFE  AA                 .BYTE $AA
02434  CEFF  AA                 .BYTE $AA
02435  CF00  AA                 .BYTE $AA
02436  CF01  AA                 .BYTE $AA
02437  CF02  AA                 .BYTE $AA
02438  CF03  AA                 .BYTE $AA
02439  CF04  AA                 .BYTE $AA
02440  CF05  AA                 .BYTE $AA
02441  CF06  AA                 .BYTE $AA
02442  CF07  AA                 .BYTE $AA
02443  CF08  AA                 .BYTE $AA
02444  CF09  AA                 .BYTE $AA
02445  CF0A  AA                 .BYTE $AA
02446  CF0B  AA                 .BYTE $AA
02447  CF0C  AA                 .BYTE $AA
02448  CF0D  AA                 .BYTE $AA
02449  CF0E  AA                 .BYTE $AA
02450  CF0F  AA                 .BYTE $AA
02451  CF10  AA                 .BYTE $AA
02452  CF11  AA                 .BYTE $AA
02453  CF12  AA                 .BYTE $AA
02454  CF13  AA                 .BYTE $AA
02455  CF14  AA                 .BYTE $AA
02456  CF15  AA                 .BYTE $AA
02457  CF16  AA                 .BYTE $AA
02458  CF17  AA                 .BYTE $AA
02459  CF18  AA                 .BYTE $AA
02460  CF19  AA                 .BYTE $AA
02461  CF1A  AA                 .BYTE $AA
02462  CF1B  AA                 .BYTE $AA
02463  CF1C  AA                 .BYTE $AA
02464  CF1D  AA                 .BYTE $AA
02465  CF1E  AA                 .BYTE $AA
02466  CF1F  AA                 .BYTE $AA
02467  CF20  AA                 .BYTE $AA
02468  CF21  AA                 .BYTE $AA
02469  CF22  AA                 .BYTE $AA
02470  CF23  AA                 .BYTE $AA
02471  CF24  AA                 .BYTE $AA
02472  CF25  AA                 .BYTE $AA
02473  CF26  AA                 .BYTE $AA
02474  CF27  AA                 .BYTE $AA
02475  CF28  AA                 .BYTE $AA
02476  CF29  AA                 .BYTE $AA






MONITOR$C000......PAGE 0047

LINE# LOC   CODE        LINE


02477  CF2A  AA                 .BYTE $AA
02478  CF2B  AA                 .BYTE $AA
02479  CF2C  AA                 .BYTE $AA
02480  CF2D  AA                 .BYTE $AA
02481  CF2E  AA                 .BYTE $AA
02482  CF2F  AA                 .BYTE $AA
02483  CF30  AA                 .BYTE $AA
02484  CF31  AA                 .BYTE $AA
02485  CF32  AA                 .BYTE $AA
02486  CF33  AA                 .BYTE $AA
02487  CF34  AA                 .BYTE $AA
02488  CF35  AA                 .BYTE $AA
02489  CF36  AA                 .BYTE $AA
02490  CF37  AA                 .BYTE $AA
02491  CF38  AA                 .BYTE $AA
02492  CF39  AA                 .BYTE $AA
02493  CF3A  AA                 .BYTE $AA
02494  CF3B  AA                 .BYTE $AA
02495  CF3C  AA                 .BYTE $AA
02496  CF3D  AA                 .BYTE $AA
02497  CF3E  AA                 .BYTE $AA
02498  CF3F  AA                 .BYTE $AA
02499  CF40  AA                 .BYTE $AA
02500  CF41  AA                 .BYTE $AA
02501  CF42  AA                 .BYTE $AA
02502  CF43  AA                 .BYTE $AA
02503  CF44  AA                 .BYTE $AA
02504  CF45  AA                 .BYTE $AA
02505  CF46  AA                 .BYTE $AA
02506  CF47  AA                 .BYTE $AA
02507  CF48  AA                 .BYTE $AA
02508  CF49  AA                 .BYTE $AA
02509  CF4A  AA                 .BYTE $AA
02510  CF4B  AA                 .BYTE $AA
02511  CF4C  AA                 .BYTE $AA
02512  CF4D  AA                 .BYTE $AA
02513  CF4E  AA                 .BYTE $AA
02514  CF4F  AA                 .BYTE $AA
02515  CF50  AA                 .BYTE $AA
02516  CF51  AA                 .BYTE $AA
02517  CF52  AA                 .BYTE $AA
02518  CF53  AA                 .BYTE $AA
02519  CF54  AA                 .BYTE $AA
02520  CF55  AA                 .BYTE $AA
02521  CF56  AA                 .BYTE $AA
02522  CF57  AA                 .BYTE $AA
02523  CF58  AA                 .BYTE $AA
02524  CF59  AA                 .BYTE $AA
02525  CF5A  AA                 .BYTE $AA
02526  CF5B  AA                 .BYTE $AA
02527  CF5C  AA                 .BYTE $AA
02528  CF5D  AA                 .BYTE $AA
02529  CF5E  AA                 .BYTE $AA
02530  CF5F  AA                 .BYTE $AA
02531  CF60  AA                 .BYTE $AA






MONITOR$C000......PAGE 0048

LINE# LOC   CODE        LINE


02532  CF61  AA                 .BYTE $AA
02533  CF62  AA                 .BYTE $AA
02534  CF63  AA                 .BYTE $AA
02535  CF64  AA                 .BYTE $AA
02536  CF65  AA                 .BYTE $AA
02537  CF66  AA                 .BYTE $AA
02538  CF67  AA                 .BYTE $AA
02539  CF68  AA                 .BYTE $AA
02540  CF69  AA                 .BYTE $AA
02541  CF6A  AA                 .BYTE $AA
02542  CF6B  AA                 .BYTE $AA
02543  CF6C  AA                 .BYTE $AA
02544  CF6D  AA                 .BYTE $AA
02545  CF6E  AA                 .BYTE $AA
02546  CF6F  AA                 .BYTE $AA
02547  CF70  AA                 .BYTE $AA
02548  CF71  AA                 .BYTE $AA
02549  CF72  AA                 .BYTE $AA
02550  CF73  AA                 .BYTE $AA
02551  CF74  AA                 .BYTE $AA
02552  CF75  AA                 .BYTE $AA
02553  CF76  AA                 .BYTE $AA
02554  CF77  AA                 .BYTE $AA
02555  CF78  AA                 .BYTE $AA
02556  CF79  AA                 .BYTE $AA
02557  CF7A  AA                 .BYTE $AA
02558  CF7B  AA                 .BYTE $AA
02559  CF7C  AA                 .BYTE $AA
02560  CF7D  AA                 .BYTE $AA
02561  CF7E  AA                 .BYTE $AA
02562  CF7F  AA                 .BYTE $AA
02563  CF80  AA                 .BYTE $AA
02564  CF81  AA                 .BYTE $AA
02565  CF82  AA                 .BYTE $AA
02566  CF83  AA                 .BYTE $AA
02567  CF84  AA                 .BYTE $AA
02568  CF85  AA                 .BYTE $AA
02569  CF86  AA                 .BYTE $AA
02570  CF87  AA                 .BYTE $AA
02571  CF88  AA                 .BYTE $AA
02572  CF89  AA                 .BYTE $AA
02573  CF8A  AA                 .BYTE $AA
02574  CF8B  AA                 .BYTE $AA
02575  CF8C  AA                 .BYTE $AA
02576  CF8D  AA                 .BYTE $AA
02577  CF8E  AA                 .BYTE $AA
02578  CF8F  AA                 .BYTE $AA
02579  CF90  AA                 .BYTE $AA
02580  CF91  AA                 .BYTE $AA
02581  CF92  AA                 .BYTE $AA
02582  CF93  AA                 .BYTE $AA
02583  CF94  AA                 .BYTE $AA
02584  CF95  AA                 .BYTE $AA
02585  CF96  AA                 .BYTE $AA
02586  CF97  AA                 .BYTE $AA






MONITOR$C000......PAGE 0049

LINE# LOC   CODE        LINE


02587  CF98  AA                 .BYTE $AA
02588  CF99  AA                 .BYTE $AA
02589  CF9A  AA                 .BYTE $AA
02590  CF9B  AA                 .BYTE $AA
02591  CF9C  AA                 .BYTE $AA
02592  CF9D  AA                 .BYTE $AA
02593  CF9E  AA                 .BYTE $AA
02594  CF9F  AA                 .BYTE $AA
02595  CFA0  AA                 .BYTE $AA
02596  CFA1  AA                 .BYTE $AA
02597  CFA2  AA                 .BYTE $AA
02598  CFA3  AA                 .BYTE $AA
02599  CFA4  AA                 .BYTE $AA
02600  CFA5  AA                 .BYTE $AA
02601  CFA6  AA                 .BYTE $AA
02602  CFA7  AA                 .BYTE $AA
02603  CFA8  AA                 .BYTE $AA
02604  CFA9  AA                 .BYTE $AA
02605  CFAA  AA                 .BYTE $AA
02606  CFAB  AA                 .BYTE $AA
02607  CFAC  AA                 .BYTE $AA
02608  CFAD  AA                 .BYTE $AA
02609  CFAE  AA                 .BYTE $AA
02610  CFAF  AA                 .BYTE $AA
02611  CFB0  AA                 .BYTE $AA
02612  CFB1  AA                 .BYTE $AA
02613  CFB2  AA                 .BYTE $AA
02614  CFB3  AA                 .BYTE $AA
02615  CFB4  AA                 .BYTE $AA
02616  CFB5  AA                 .BYTE $AA
02617  CFB6  AA                 .BYTE $AA
02618  CFB7  AA                 .BYTE $AA
02619  CFB8  AA                 .BYTE $AA
02620  CFB9  AA                 .BYTE $AA
02621  CFBA  AA                 .BYTE $AA
02622  CFBB  AA                 .BYTE $AA
02623  CFBC  AA                 .BYTE $AA
02624  CFBD  AA                 .BYTE $AA
02625  CFBE  AA                 .BYTE $AA
02626  CFBF  AA                 .BYTE $AA
02627  CFC0  AA                 .BYTE $AA
02628  CFC1  AA                 .BYTE $AA
02629  CFC2  AA                 .BYTE $AA
02630  CFC3  AA                 .BYTE $AA
02631  CFC4  AA                 .BYTE $AA
02632  CFC5  AA                 .BYTE $AA
02633  CFC6  AA                 .BYTE $AA
02634  CFC7  AA                 .BYTE $AA
02635  CFC8  AA                 .BYTE $AA
02636  CFC9  AA                 .BYTE $AA
02637  CFCA  AA                 .BYTE $AA
02638  CFCB  AA                 .BYTE $AA
02639  CFCC  AA                 .BYTE $AA
02640  CFCD  AA                 .BYTE $AA
02641  CFCE  AA                 .BYTE $AA






MONITOR$C000......PAGE 0050

LINE# LOC   CODE        LINE


02642  CFCF  AA                 .BYTE $AA
02643  CFD0  AA                 .BYTE $AA
02644  CFD1  AA                 .BYTE $AA
02645  CFD2  AA                 .BYTE $AA
02646  CFD3  AA                 .BYTE $AA
02647  CFD4  AA                 .BYTE $AA
02648  CFD5  AA                 .BYTE $AA
02649  CFD6  AA                 .BYTE $AA
02650  CFD7  AA                 .BYTE $AA
02651  CFD8  AA                 .BYTE $AA
02652  CFD9  AA                 .BYTE $AA
02653  CFDA  AA                 .BYTE $AA
02654  CFDB  AA                 .BYTE $AA
02655  CFDC  AA                 .BYTE $AA
02656  CFDD  AA                 .BYTE $AA
02657  CFDE  AA                 .BYTE $AA
02658  CFDF  AA                 .BYTE $AA
02659  CFE0  AA                 .BYTE $AA
02660  CFE1  AA                 .BYTE $AA
02661  CFE2  AA                 .BYTE $AA
02662  CFE3  AA                 .BYTE $AA
02663  CFE4  AA                 .BYTE $AA
02664  CFE5  AA                 .BYTE $AA
02665  CFE6  AA                 .BYTE $AA
02666  CFE7  AA                 .BYTE $AA
02667  CFE8  AA                 .BYTE $AA
02668  CFE9  AA                 .BYTE $AA
02669  CFEA  AA                 .BYTE $AA
02670  CFEB  AA                 .BYTE $AA
02671  CFEC  AA                 .BYTE $AA
02672  CFED  AA                 .BYTE $AA
02673  CFEE  AA                 .BYTE $AA
02674  CFEF  AA                 .BYTE $AA
02675  CFF0  AA                 .BYTE $AA
02676  CFF1  AA                 .BYTE $AA
02677  CFF2  AA                 .BYTE $AA
02678  CFF3  AA                 .BYTE $AA
02679  CFF4  AA                 .BYTE $AA
02680  CFF5  AA                 .BYTE $AA
02681  CFF6  AA                 .BYTE $AA
02682  CFF7  AA                 .BYTE $AA
02683  CFF8  AA                 .BYTE $AA
02684  CFF9  AA                 .BYTE $AA
02685  CFFA  AA                 .BYTE $AA
02686  CFFB  AA                 .BYTE $AA
02687  CFFC  AA                 .BYTE $AA
02688  CFFD  AA                 .BYTE $AA
02689  CFFE  AA                 .BYTE $AA
02690  CFFF              ;********************************
02691  CFFF              ; GARBAGE BYTE @ START + $0FFF
02692  CFFF              ;********************************
02693  CFFF              ;       .BYTE $94
02694  CFFF              ;********************************
02695  CFFF              .END







MONITOR$C000......PAGE 0051

LINE# LOC   CODE        LINE


ERRORS = 00000


SYMBOL TABLE

SYMBOL VALUE
 ADRAY1   0003    ADRAY2   0005    BLNON    00CF    CAS1     00C0
 CBINV    0316    CHANNL   0013    CHARAC   0007    CHRIN    FFCF
 CHROUT   FFD2    CINV     0314    CLRCHN   FFCC    CMPO     00B0
 D6510    0000    DIMFLG   000C    ENDCHR   0008    ENTRY    C000
 FRETOP   0033    GARBFL   000F    GDBLN    00CE    GETIN    FFE4
 INDEX    0022    INPFLG   0011    INTFLG   000E    KEYD     0277
 LINNUM   0014    LOAD     FFD5    MCHRIN   C006    MCHROT   C009
 MEMSIZ   0283    MEMUSS   00C3    NDX      00C6    NMINV    0318
 PNT      00D1    PNTR     00D3    RESHO    0026    ROBUF    00F9
 SAL      00AC    SAVE     FFD8    SETMSG   FF90    STACK    0100
 STAL     00C1    STREND   0031    SUBFLG   0010    TANSGN   0012
 TBLX     00D6    TEMPST   0019    TXTTAB   002B    UNUSED   0002
 VALTYP   000D    VARTAB   002D    VICSCN   0400    XXC003   C003
 XXC00C   C00C    XXC03F   C03F    XXC084   C084    XXC087   C087
 XXC08A   C08A    XXC08F   C08F    XXC097   C097    XXC09C   C09C
 XXC0AC   C0AC    XXC0B9   C0B9    XXC0D0   C0D0    XXC0D5   C0D5
 XXC0D9   C0D9    XXC0DB   C0DB    XXC0E5   C0E5    XXC0E7   C0E7
 XXC0EA   C0EA    XXC0F3   C0F3    XXC0FA   C0FA    XXC0FC   C0FC
 XXC10A   C10A    XXC111   C111    XXC115   C115    XXC127   C127
 XXC137   C137    XXC13F   C13F    XXC148   C148    XXC151   C151
 XXC163   C163    XXC177   C177    XXC188   C188    XXC18C   C18C
 XXC197   C197    XXC198   C198    XXC1AB   C1AB    XXC1BE   C1BE
 XXC1C1   C1C1    XXC1D9   C1D9    XXC1E9   C1E9    XXC1F0   C1F0
 XXC203   C203    XXC208   C208    XXC212   C212    XXC22C   C22C
 XXC232   C232    XXC23E   C23E    XXC244   C244    XXC256   C256
 XXC25B   C25B    XXC25E   C25E    XXC273   C273    XXC27B   C27B
 XXC28A   C28A    XXC29C   C29C    XXC2A0   C2A0    XXC2A8   C2A8
 XXC2AD   C2AD    XXC2B5   C2B5    XXC2B7   C2B7    XXC2BF   C2BF
 XXC2C0   C2C0    XXC2C6   C2C6    XXC2CB   C2CB    XXC2CC   C2CC
 XXC2E2   C2E2    XXC2EA   C2EA    XXC2F5   C2F5    XXC304   C304
 XXC30F   C30F    XXC313   C313    XXC317   C317    XXC32C   C32C
 XXC330   C330    XXC337   C337    XXC33B   C33B    XXC343   C343
 XXC352   C352    XXC35D   C35D    XXC361   C361    XXC374   C374
 XXC385   C385    XXC388   C388    XXC391   C391    XXC3A0   C3A0
 XXC3B3   C3B3    XXC3B6   C3B6    XXC3BB   C3BB    XXC3BE   C3BE
 XXC3C1   C3C1    XXC3D7   C3D7    XXC3E2   C3E2    XXC3F3   C3F3
 XXC409   C409    XXC40E   C40E    XXC411   C411    XXC438   C438
 XXC449   C449    XXC453   C453    XXC457   C457    XXC465   C465
 XXC46F   C46F    XXC479   C479    XXC47B   C47B    XXC49D   C49D
 XXC4A2   C4A2    XXC4A8   C4A8    XXC4C4   C4C4    XXC4CC   C4CC
 XXC4DA   C4DA    XXC4EC   C4EC    XXC4F1   C4F1    XXC4F7   C4F7
 XXC500   C500    XXC51B   C51B    XXC522   C522    XXC529   C529
 XXC52C   C52C    XXC532   C532    XXC547   C547    XXC56C   C56C
 XXC56F   C56F    XXC579   C579    XXC580   C580    XXC583   C583
 XXC589   C589    XXC590   C590    XXC592   C592    XXC597   C597
 XXC599   C599    XXC59C   C59C    XXC5AB   C5AB    XXC5C8   C5C8
 XXC5D6   C5D6    XXC607   C607    XXC632   C632    XXC634   C634
 XXC650   C650    XXC659   C659    XXC667   C667    XXC67C   C67C








SYMBOL TABLE

SYMBOL VALUE
 XXC688   C688    XXC692   C692    XXC694   C694    XXC696   C696
 XXC6AC   C6AC    XXC6C6   C6C6    XXC6D6   C6D6    XXC6D9   C6D9
 XXC702   C702    XXC714   C714    XXC718   C718    XXC72F   C72F
 XXC733   C733    XXC765   C765    XXC767   C767    XXC7B2   C7B2
 XXC7B5   C7B5    XXC7D1   C7D1    XXC7D4   C7D4    XXC7DC   C7DC
 XXC7DE   C7DE    XXC815   C815    XXC81D   C81D    XXC82E   C82E
 XXC831   C831    XXC836   C836    XXC83B   C83B    XXC840   C840
 XXC843   C843    XXC84E   C84E    XXC855   C855    XXC864   C864
 XXC86D   C86D    XXC874   C874    XXC877   C877    XXC879   C879
 XXC887   C887    XXC88B   C88B    XXC897   C897    XXC89A   C89A
 XXC89F   C89F    XXC8A6   C8A6    XXC8A9   C8A9    XXC8B0   C8B0
 XXC8BD   C8BD    XXC8C9   C8C9    XXC8D0   C8D0    XXC8DA   C8DA
 XXC8DB   C8DB    XXC8E5   C8E5    XXC8F2   C8F2    XXC8F3   C8F3
 XXC8FC   C8FC    XXC90C   C90C    XXC90D   C90D    XXC925   C925
 XXC92A   C92A    XXC92E   C92E    XXC93F   C93F    XXC950   C950
 XXC956   C956    XXC963   C963    XXC96D   C96D    XXC96E   C96E
 XXC974   C974    XXC979   C979    XXC97C   C97C    XXC9A8   C9A8
 XXC9AA   C9AA    XXC9D1   C9D1    XXC9E2   C9E2    XXC9FB   C9FB
 XXCA13   CA13    XXCA20   CA20    XXCA22   CA22    XXCA34   CA34
 XXCA38   CA38    XXCA3C   CA3C    XXCA4A   CA4A    XXCA4F   CA4F
 XXCA58   CA58    XXCA5F   CA5F    XXCA70   CA70    XXCA7A   CA7A
 XXCA83   CA83    XXCA8C   CA8C    XXCAA7   CAA7    XXCAAF   CAAF
 XXCAB5   CAB5    XXCABF   CABF    XXCAD1   CAD1    XXCAF3   CAF3
 XXCB0F   CB0F    XXCB15   CB15    XXCB20   CB20    XXCB35   CB35
 XXCB44   CB44    XXCB55   CB55    XXCB5C   CB5C    XXCB63   CB63
 XXCB6F   CB6F    XXCB91   CB91    XXCB98   CB98    XXCB9B   CB9B
 XXCBB3   CBB3    XXCBB9   CBB9    XXCBC7   CBC7    XXCBCA   CBCA
 XXCBD8   CBD8    XXCBE7   CBE7    XXCBF4   CBF4    XXCC05   CC05
 XXCC1B   CC1B    XXCC23   CC23    XXCC41   CC41    XXCC64   CC64
 XXCC6A   CC6A    XXCC6F   CC6F    XXCC75   CC75    XXCC9C   CC9C
 XXCC9E   CC9E    XXCCB3   CCB3    XXCCBE   CCBE    XXCCD6   CCD6
 XXCCE9   CCE9    XXCCF6   CCF6    XXCCF9   CCF9    XXCD04   CD04
 XXCD13   CD13    XXCD19   CD19    XXCD29   CD29    XXCD39   CD39
 XXCD3A   CD3A    XXCD45   CD45    XXCD49   CD49    XXCD4B   CD4B
 XXCD53   CD53    XXCD57   CD57    XXCD59   CD59    XXCD63   CD63
 XXCD75   CD75    XXCD7C   CD7C    XXCDA3   CDA3    XXCDAB   CDAB
 XXCDB9   CDB9    XXCDFD   CDFD    XXCE0A   CE0A    XXCE0B   CE0B
 XXCE0C   CE0C    XXCE0D   CE0D    XXCE0E   CE0E    XXCE0F   CE0F
 XXCE10   CE10    XXCE17   CE17    XXCE57   CE57    XXCE97   CE97
 XXCEAD   CEAD    XXCEC2   CEC2    XXCEC3   CEC3    XXCEEE   CEEE
 XXCEEF   CEEF    XXCEF0   CEF0    XXCEF1   CEF1    XXCEF2   CEF2
 XXCEF3   CEF3    XXCEF4   CEF4    XXCEF5   CEF5    XXCEF6   CEF6
 XXCEF7   CEF7    ZZC121   C121    ZZC125   C125    ZZC19B   C19B
 ZZC1C4   C1C4    ZZC241   C241    ZZC396   C396    ZZC399   C399
 ZZC420   C420    ZZC44C   C44C    ZZC6A2   C6A2    ZZC6A6   C6A6
 ZZC6AA   C6AA    ZZC76A   C76A    ZZC78D   C78D    ZZC981   C981
 ZZC9D7   C9D7    ZZC9EE   C9EE    ZZC9FE   C9FE    ZZCCBF   CCBF


END OF ASSEMBLY

CROSS REFERENCE......PAGE    1


  ADRAY1 $0003    34   142   144   150   152   877   883   914   916   957

                 981  1046  1087  1089  1354  1441
  ADRAY2 $0005    35   138   140   873   878   909   911  1091  1093
  BLNON  $00CF    61  1807  1813
  CAS1   $00C0    56   233   236  1256  1259
  CBINV  $0316    79   115   116
  CHANNL $0013    45   126   935   946   948   951  1058  1060  1096
  CHARAC $0007    36   136   879   907  1094
  CHRIN  $FFCF    90   104
  CHROUT $FFD2    91   106
  CINV   $0314    78  1348  1350  1891  1892  1901  1902  1906  1908
  CLRCHN $FFCC    89  1323
  CMPO   $00B0    55  1754  1762  1768  1774  1779
  D6510  $0000    32  1853  1876  1879
  DIMFLG $000C    38  1949  1969  1975  1979
  ENDCHR $0008    37   148   931   972  1083  1466
  ENTRY  $C000   100  2382  2383
  FRETOP $0033    53   349   360   378   693   708   709   728   730   828

  GARBFL $000F    41   187  1385  1445  1459  1959
  GDBLN  $00CE    60  1809
  GETIN  $FFE4    94   989
  INDEX  $0022    48   224   425   458   474   487   489   490   524   548

                 750   777   796   851   987  1151  1157  1167  1171  1634

                1732  1733  1736
  INPFLG $0011    43   110   923
  INTFLG $000E    40  1937  1940  1956  1964  1966
  KEYD   $0277    73   674   805   810   813   814   817   818   820  1568

  LINNUM $0014    46   160   162   937   939   955   958  1045  1048  1065

                1120  1121  1419  1420
  LOAD   $FFD5    92  1508
  MCHRIN $C006   104   351   362   681   714  1027  1036  1145  1148  1314

                1413  1486  1493  1515  1526  1532  1538
  MCHROT $C009   106   182   185   493   569   629   637   641   643   648

                 856  1244  1246  1406  1431  1788
  MEMSIZ $0283    74  1844  1845
  MEMUSS $00C3    58   247   248   277   279   287   288   290   291   679

                 680   690   691  1206  1207  1222  1223  1577  1579  1593

                1595  1597  1654  1656  1670  1672  1674  1714  1715  1719

                1722  1757  1761  1766  1772  1777  1829  1846  1847  1850

                1851  1854  1859  1860
  NDX    $00C6    59   822  1324  1559  1638  1705
  NMINV  $0318    80   109   111   924   926  1079  1081
  PNT    $00D1    62  1576  1578  1653  1655  1811
  PNTR   $00D3    63  1810
  RESHO  $0026    49   188   218   235   238   243   244   251   255   266

                 281   286   298   306   327   395   558   560   563   564

                 607   733   735   738   741   771   779   786   791   802

                 832  1153  1209  1210  1392  1640  1707
  ROBUF  $00F9    65   119   120   901  1842  1843  1862  1863  1873  1878

                1881  1932  1935  1962  1965
  SAL    $00AC    54  1143  1144  1184  1189  1536  1537  1549  1550  1751

                1753  1756  1759  1765  1767  1771  1773  1776  1778
  SAVE   $FFD8    93  1552
  SETMSG $FF90    88   122
  STACK  $0100    69   896
  STAL   $00C1    57   161   163   203   205   214   216   219   220   250








CROSS REFERENCE......PAGE    2


                 253   373   375   385   387   391   393   460   461   465

                 469   482   484   486   649   652   654   724   725   726

                 811   815   938   940   983   984  1051  1052  1064  1066

                1118  1119  1213  1214  1229  1231  1258  1261  1381  1383

                1388  1390  1421  1422  1609  1610  1612  1617  1619  1621

                1688  1690  1692  1698  1700  1702  1712  1713  1721  1724

                1802  1803  1929  1933  1936  1941  1952  1955
  STREND $0031    52   128   189  1022  1557  1639  1706  1805
  SUBFLG $0010    42   127   888   952   965   968   998  1021  1053  1062

                1071  1095
  TANSGN $0012    44   112   925
  TBLX   $00D6    64  1573  1649
  TEMPST $0019    47   124   157   326   331   585   605   611   737   772

                 827   839   943  1042  1124  1377  1416  1426  1455
  TXTTAB $002B    50   357   427   434   522   740   752   759  1267  1284

                1299  1302  1823  1826
  UNUSED $0002    33   146   153   155   886   918   954   982  1049  1085

                1355  1439
  VALTYP $000D    39   309  1372  1916  1926  1934  1942  1953  1961  1963

                1968  1978
  VARTAB $002D    51   166   168   960   962  1000  1001  1024  1026  1581

                1590  1658  1667  1717  1720  1730
  VICSCN $0400    84  1784
* XXC003 $C003   102
  XXC00C $C00C   100   108
  XXC03F $C03F   102   134  2405  2406
  XXC084 $C084   167   171
  XXC087 $C087   169   173
  XXC08A $C08A   159   170   175   970
  XXC08F $C08F   177  1006
  XXC097 $C097   181   210   335   836  1113  1281  1374  1448  1471  1866

  XXC09C $C09C   183   317   337   399   823   993  1132  1165  1317  1427

                1446  1513  1553  1857  1864
  XXC0AC $C0AC   190   192   194
  XXC0B9 $C0B9   196   209
  XXC0D0 $C0D0   197   208
  XXC0D5 $C0D5   211   296
  XXC0D9 $C0D9   213   297
  XXC0DB $C0DB   212   214
  XXC0E5 $C0E5   217   219
  XXC0E7 $C0E7   215   220
  XXC0EA $C0EA   223   407   807  1164
  XXC0F3 $C0F3   227   229   547
  XXC0FA $C0FA   232   292  1226
  XXC0FC $C0FC   233   240
  XXC10A $C10A   243   272   284   294  1155
  XXC111 $C111   247   269   329   397   404   609   782  1727
  XXC115 $C115   245   249
  XXC127 $C127   261   266
  XXC137 $C137   272   283
  XXC13F $C13F   273   276
  XXC148 $C148   278   280
  XXC151 $C151   271   284
  XXC163 $C163   293   300
  XXC177 $C177   276   293   301
  XXC188 $C188   307   309







CROSS REFERENCE......PAGE    3


  XXC18C $C18C   311   388
  XXC197 $C197   310   315
  XXC198 $C198   282   299   314   317
  XXC1AB $C1AB   327   334
  XXC1BE $C1BE   325   335   359   366
  XXC1C1 $C1C1   274   295   328   330   337
  XXC1D9 $C1D9   349   355
  XXC1E9 $C1E9   347   357
  XXC1F0 $C1F0   360   368
  XXC203 $C203   353   356   364   369
  XXC208 $C208   371   398
  XXC212 $C212   377   383
  XXC22C $C22C   379   390
  XXC232 $C232   389   394
  XXC23E $C23E   396   399   412
  XXC244 $C244   404   410
  XXC256 $C256   405   411   620
  XXC25B $C25B   225   413  1636
  XXC25E $C25E   414   988  1739
  XXC273 $C273   423   442
  XXC27B $C27B   427   433
  XXC28A $C28A   424   426   434
  XXC29C $C29C   435   439   441
  XXC2A0 $C2A0   430   445
  XXC2A8 $C2A8   448   450
  XXC2AD $C2AD   431   451   453   545
  XXC2B5 $C2B5   408   458   808  1632  1726
  XXC2B7 $C2B7   459   592
  XXC2BF $C2BF   459   464
  XXC2C0 $C2C0   445   465
  XXC2C6 $C2C6   467   469
  XXC2CB $C2CB   470   472
  XXC2CC $C2CC   418   474
  XXC2E2 $C2E2   485   487
  XXC2EA $C2EA   492   496
  XXC2F5 $C2F5   499   739  1160  1744
  XXC304 $C304   501   508
  XXC30F $C30F   511   516
  XXC313 $C313   503   505   518
  XXC317 $C317   517   520
  XXC32C $C32C   532   541
  XXC330 $C330   535   538
  XXC337 $C337   531   533   540
  XXC33B $C33B   544   550
  XXC343 $C343   547   553
  XXC352 $C352   421   556
  XXC35D $C35D   561   571
  XXC361 $C361   563   567
  XXC374 $C374   574  2389  2390
  XXC385 $C385   585   670
  XXC388 $C388   587   589
  XXC391 $C391   591  1734
  XXC3A0 $C3A0   607   619
  XXC3B3 $C3B3   612   617
  XXC3B6 $C3B6   614   618
  XXC3BB $C3BB   608   610   620







CROSS REFERENCE......PAGE    4


  XXC3BE $C3BE   613   622  1613
  XXC3C1 $C3C1   623  1693
  XXC3D7 $C3D7   632   646
  XXC3E2 $C3E2   635   637
  XXC3F3 $C3F3   639   644
  XXC409 $C409   653   655
  XXC40E $C40E   617   658   672
  XXC411 $C411   659  1703
  XXC438 $C438   403   606   678
  XXC449 $C449   683   685
  XXC453 $C453   692   696
  XXC457 $C457   694   700
  XXC465 $C465   701   712
  XXC46F $C46F   707   711
  XXC479 $C479   702   713
  XXC47B $C47B   714   720   732
  XXC49D $C49D   722   730
  XXC4A2 $C4A2   716   718   733
  XXC4A8 $C4A8   736   834
  XXC4C4 $C4C4   748   767
  XXC4CC $C4CC   752   758
  XXC4DA $C4DA   749   751   759
  XXC4EC $C4EC   760   764   766
  XXC4F1 $C4F1   755   769
  XXC4F7 $C4F7   768   771
  XXC500 $C500   773   776
  XXC51B $C51B   783   789
  XXC522 $C522   788   793
  XXC529 $C529   781   798   801
  XXC52C $C52C   797   799
  XXC532 $C532   778   802
  XXC547 $C547   676   810
  XXC56C $C56C   756   769   770   825
  XXC56F $C56F   744   746   762   765   825   826
  XXC579 $C579   774   832
  XXC580 $C580   785   787   790   792   833   836
  XXC583 $C583   829   838
  XXC589 $C589   721   843
  XXC590 $C590   844   848
  XXC592 $C592   437   440   851
  XXC597 $C597   411   671   806   855  1641
  XXC599 $C599   852   856
  XXC59C $C59C   812   816   860
  XXC5AB $C5AB   873  2421  2422
  XXC5C8 $C5C8   890  2397  2398
  XXC5D6 $C5D6   898   900
  XXC607 $C607   889   930
  XXC632 $C632   947   951
  XXC634 $C634   936   952
  XXC650 $C650   953   967
  XXC659 $C659   969   972
  XXC667 $C667   967   980
  XXC67C $C67C   989   990
  XXC688 $C688   992   995
  XXC692 $C692   173   963  1000
  XXC694 $C694   171   961  1001







CROSS REFERENCE......PAGE    5


  XXC696 $C696   956   959  1002
  XXC6AC $C6AC  1011  1016  1021
  XXC6C6 $C6C6  1031  1034
  XXC6D6 $C6D6  1029  1038  1041
  XXC6D9 $C6D9   949   996   999  1004  1042
  XXC702 $C702  1047  1050  1062
  XXC714 $C714  1044  1071
  XXC718 $C718  1054  1061  1063  1073
  XXC72F $C72F  1072  1082
  XXC733 $C733   978  1085
  XXC765 $C765  1103  1110
  XXC767 $C767  1032  1039  1113
  XXC7B2 $C7B2  1147  1150  1152
  XXC7B5 $C7B5  1153  1204
  XXC7D1 $C7D1  1154  1156  1165
  XXC7D4 $C7D4  1163  1167
  XXC7DC $C7DC  1158  1171
  XXC7DE $C7DE  1170  1172
  XXC815 $C815  1169  1180  1191  1201  1203
  XXC81D $C81D   267  1136  1205
  XXC82E $C82E  1212  1531
  XXC831 $C831  1213  1218
  XXC836 $C836   321   341   668   678  1217
  XXC83B $C83B   684  1219
  XXC840 $C840   322   342  1221
  XXC843 $C843  1220  1222
  XXC84E $C84E   311   414   627   662  1229  1626
  XXC855 $C855   454  1230  1232  1362  1440  1442
  XXC864 $C864   178   625   661  1242  1400  1438  1625
  XXC86D $C86D   865   869  1237  1241  1248
  XXC874 $C874  1250  1252
  XXC877 $C877   270   776  1152  1255
  XXC879 $C879  1256  1263
  XXC887 $C887   689  1117  1205  1217  1266  1452  1839
  XXC88B $C88B  1268  1270
  XXC897 $C897  1129  1139  1142  1208  1221  1227  1273
  XXC89A $C89A  1034  1212  1219  1274  1535
  XXC89F $C89F  1272  1276
  XXC8A6 $C8A6  1275  1278  1281
  XXC8A9 $C8A9   324   365  1274  1277  1283  1368  1520
  XXC8B0 $C8B0   358  1286
  XXC8BD $C8BD   723  1271  1287  1294
  XXC8C9 $C8C9  1290  1301
  XXC8D0 $C8D0  1294  1301  1306  1818  1825
  XXC8DA $C8DA  1310  1312  1316
  XXC8DB $C8DB   190   323   343   345   348   587   694  1211  1268  1273

                1285  1288  1300  1314  1456
  XXC8E5 $C8E5   313   409   618  1319  1333
  XXC8F2 $C8F2  1321  1326
  XXC8F3 $C8F3  1328  1330  1509
  XXC8FC $C8FC  1328  1333
  XXC90C $C90C  1334  1340
  XXC90D $C90D  1335  1342
  XXC925 $C925  1035  1354  1453
  XXC92A $C92A   478   656   664  1358  1444  1628
  XXC92E $C92E  1360  1365







CROSS REFERENCE......PAGE    6


  XXC93F $C93F   588  1368  1457
  XXC950 $C950  1369  1373  1376
  XXC956 $C956  1380  1443  1454
  XXC963 $C963   280   333   380   394   644  1201  1363  1376  1388
  XXC96D $C96D  1389  1391  1393
  XXC96E $C96E   413  1395
  XXC974 $C974  1399  1738
  XXC979 $C979   227   312   415   572   626   985  1360  1401
  XXC97C $C97C   175   183   268   370   622   658   685   980  1041  1397

                1405  1435  1546  1622  1642
  XXC9A8 $C9A8   179  1412  1415  1418  1429
  XXC9AA $C9AA  1430  1434
  XXC9D1 $C9D1  1446  1460
  XXC9E2 $C9E2  1456  1458
  XXC9FB $C9FB  1471  1492  1502
  XXCA13 $CA13  1486  1488
  XXCA20 $CA20  1492  1506
  XXCA22 $CA22  1493  1503
  XXCA34 $CA34  1502  1522
  XXCA38 $CA38  1490  1497  1504  1517  1528
  XXCA3C $CA3C  1506  1512
  XXCA4A $CA4A  1512  1519
  XXCA4F $CA4F  1495  1515
  XXCA58 $CA58  1519  1530
  XXCA5F $CA5F  1522  1524
  XXCA70 $CA70  1530  1534
  XXCA7A $CA7A  1534  1542
  XXCA83 $CA83  1538  1540
  XXCA8C $CA8C  1542  1545
  XXCAA7 $CAA7  1557  2413  2414
  XXCAAF $CAAF  1558  1561  1575  1591  1601  1643  1647  1651  1679  1709

  XXCAB5 $CAB5  1560  1568
  XXCABF $CABF  1570  1573
  XXCAD1 $CAD1  1582  1596  1598
  XXCAF3 $CAF3  1585  1587  1589  1599
  XXCB0F $CB0F  1611  1613
  XXCB15 $CB15  1604  1616
  XXCB20 $CB20  1620  1622
  XXCB35 $CB35  1606  1631
  XXCB44 $CB44  1614  1629  1637
  XXCB55 $CB55  1571  1645
  XXCB5C $CB5C  1646  1649
  XXCB63 $CB63  1650  1653
  XXCB6F $CB6F  1659  1673  1675
  XXCB91 $CB91  1662  1664  1666  1676
  XXCB98 $CB98  1668  1679
  XXCB9B $CB9B  1678  1681
  XXCBB3 $CBB3  1691  1693
  XXCBB9 $CBB9  1683  1696
  XXCBC7 $CBC7  1701  1703
  XXCBCA $CBCA  1694  1704  1740
  XXCBD8 $CBD8  1685  1711
  XXCBE7 $CBE7  1718  1731
  XXCBF4 $CBF4  1725  1729
  XXCC05 $CC05  1728  1732
  XXCC1B $CC1B   416  1631  1725  1742







CROSS REFERENCE......PAGE    7


  XXCC23 $CC23  1686  1696  1711  1750
  XXCC41 $CC41  1765  1770  1781
  XXCC64 $CC64  1784  1786
  XXCC6A $CC6A  1708  1787
  XXCC6F $CC6F  1600  1677  1790  1797
  XXCC75 $CC75  1791  1795
  XXCC9C $CC9C  1808  1814
  XXCC9E $CC9E  1799  1801  1817
  XXCCB3 $CCB3  1583  1660  1795  1817  1824  1829
  XXCCBE $CCBE  1833  1835
  XXCCD6 $CCD6  1849  1856
  XXCCE9 $CCE9  1841  1852  1859
  XXCCF6 $CCF6  1861  1866
  XXCCF9 $CCF9   134   905  1101  1468  1868
  XXCD04 $CD04  1876  1883
  XXCD13 $CD13  1874  1884
  XXCD19 $CD19   117   156   927  1891
  XXCD29 $CD29  1894  1897
  XXCD39 $CD39  1896  1903
  XXCD3A $CD3A  1100  1465  1905
  XXCD45 $CD45   304  1911
  XXCD49 $CD49   302   632  1743  1913
  XXCD4B $CD4B  1912  1914
  XXCD53 $CD53   308  1919
  XXCD57 $CD57   332  1371  1921
  XXCD59 $CD59  1920  1922
  XXCD63 $CD63  1914  1923  1929
  XXCD75 $CD75  1930  1940
  XXCD7C $CD7C   377   429   544   942  1123  1159  1174  1178  1182  1187

                1198  1361  1945  1974
  XXCDA3 $CDA3  1958  1960  1967
  XXCDAB $CDAB   165   799   803   945  1056  1070  1196  1200  1424  1973

  XXCDB9 $CDB9   510  2017
  XXCDFD $CDFD   521  2105
  XXCE0A $CE0A   436   761  2118
* XXCE0B $CE0B  2119
* XXCE0C $CE0C  2120
* XXCE0D $CE0D  2121
* XXCE0E $CE0E  2122
* XXCE0F $CE0F  2123
  XXCE10 $CE10   438   763  2124
  XXCE17 $CE17   557   745  1162  2154
  XXCE57 $CE57   559   743  2241
  XXCE97 $CE97  1430  2308
  XXCEAD $CEAD   196  2313
  XXCEC2 $CEC2   202  2319
  XXCEC3 $CEC3   204  2320
  XXCEEE $CEEE  1347  1893  1899  2389
  XXCEEF $CEEF  1349  1895  1900  2390
  XXCEF0 $CEF0  1080  2397
  XXCEF1 $CEF1  1078  2398
  XXCEF2 $CEF2   113  2405
  XXCEF3 $CEF3   114  2406
  XXCEF4 $CEF4   576  2413
  XXCEF5 $CEF5   574  2414
  XXCEF6 $CEF6   976  2421







CROSS REFERENCE......PAGE    8


  XXCEF7 $CEF7   974  2422
  ZZC121 $C121   260  2325  2326
  ZZC125 $C125   265  2361  2362
  ZZC19B $C19B   321  2331  2332
  ZZC1C4 $C1C4   341  2337  2338
  ZZC241 $C241   403  2328  2329
  ZZC396 $C396   596  2340  2341
  ZZC399 $C399   603  2346  2347
  ZZC420 $C420   668  2373  2374
  ZZC44C $C44C   689  2319  2320  2370  2371
  ZZC6A2 $C6A2  1010  2334  2335
  ZZC6A6 $C6A6  1015  2352  2353
  ZZC6AA $C6AA  1020  2364  2365
  ZZC76A $C76A  1117  2322  2323
  ZZC78D $C78D  1136  2349  2350
  ZZC981 $C981  1410  2355  2356
  ZZC9D7 $C9D7  1452  2376  2377
  ZZC9EE $C9EE  1464  2367  2368
  ZZC9FE $C9FE  1475  2343  2344  2358  2359
  ZZCCBF $CCBF  1839  2379  2380












































































































